
HC-SR04.elf:     file format elf32-avr

Sections:
Idx Name          Size      VMA       LMA       File off  Algn
  0 .text         000012aa  00000000  00000000  00000094  2**1
                  CONTENTS, ALLOC, LOAD, READONLY, CODE
  1 .data         00000026  00800060  000012aa  0000133e  2**0
                  CONTENTS, ALLOC, LOAD, DATA
  2 .bss          0000004d  00800086  00800086  00001364  2**0
                  ALLOC
  3 .stab         000006cc  00000000  00000000  00001364  2**2
                  CONTENTS, READONLY, DEBUGGING
  4 .stabstr      00000097  00000000  00000000  00001a30  2**0
                  CONTENTS, READONLY, DEBUGGING
  5 .comment      0000002f  00000000  00000000  00001ac7  2**0
                  CONTENTS, READONLY
  6 .debug_aranges 00000158  00000000  00000000  00001af6  2**0
                  CONTENTS, READONLY, DEBUGGING
  7 .debug_info   00001fb6  00000000  00000000  00001c4e  2**0
                  CONTENTS, READONLY, DEBUGGING
  8 .debug_abbrev 0000106d  00000000  00000000  00003c04  2**0
                  CONTENTS, READONLY, DEBUGGING
  9 .debug_line   000008b3  00000000  00000000  00004c71  2**0
                  CONTENTS, READONLY, DEBUGGING
 10 .debug_frame  00000268  00000000  00000000  00005524  2**2
                  CONTENTS, READONLY, DEBUGGING
 11 .debug_str    00000397  00000000  00000000  0000578c  2**0
                  CONTENTS, READONLY, DEBUGGING
 12 .debug_loc    00000d65  00000000  00000000  00005b23  2**0
                  CONTENTS, READONLY, DEBUGGING
 13 .debug_ranges 00000050  00000000  00000000  00006888  2**0
                  CONTENTS, READONLY, DEBUGGING

Disassembly of section .text:

00000000 <__vectors>:
       0:	12 c0       	rjmp	.+36     	; 0x26 <__ctors_end>
       2:	8e c6       	rjmp	.+3356   	; 0xd20 <__vector_1>
       4:	2b c0       	rjmp	.+86     	; 0x5c <__bad_interrupt>
       6:	2a c0       	rjmp	.+84     	; 0x5c <__bad_interrupt>
       8:	29 c0       	rjmp	.+82     	; 0x5c <__bad_interrupt>
       a:	28 c0       	rjmp	.+80     	; 0x5c <__bad_interrupt>
       c:	27 c0       	rjmp	.+78     	; 0x5c <__bad_interrupt>
       e:	26 c0       	rjmp	.+76     	; 0x5c <__bad_interrupt>
      10:	7a c6       	rjmp	.+3316   	; 0xd06 <__vector_8>
      12:	57 c6       	rjmp	.+3246   	; 0xcc2 <__vector_9>
      14:	23 c0       	rjmp	.+70     	; 0x5c <__bad_interrupt>
      16:	f6 c5       	rjmp	.+3052   	; 0xc04 <__vector_11>
      18:	19 c6       	rjmp	.+3122   	; 0xc4c <__vector_12>
      1a:	20 c0       	rjmp	.+64     	; 0x5c <__bad_interrupt>
      1c:	1f c0       	rjmp	.+62     	; 0x5c <__bad_interrupt>
      1e:	1e c0       	rjmp	.+60     	; 0x5c <__bad_interrupt>
      20:	1d c0       	rjmp	.+58     	; 0x5c <__bad_interrupt>
      22:	1c c0       	rjmp	.+56     	; 0x5c <__bad_interrupt>
      24:	1b c0       	rjmp	.+54     	; 0x5c <__bad_interrupt>

00000026 <__ctors_end>:
      26:	11 24       	eor	r1, r1
      28:	1f be       	out	0x3f, r1	; 63
      2a:	cf e5       	ldi	r28, 0x5F	; 95
      2c:	d4 e0       	ldi	r29, 0x04	; 4
      2e:	de bf       	out	0x3e, r29	; 62
      30:	cd bf       	out	0x3d, r28	; 61

00000032 <__do_copy_data>:
      32:	10 e0       	ldi	r17, 0x00	; 0
      34:	a0 e6       	ldi	r26, 0x60	; 96
      36:	b0 e0       	ldi	r27, 0x00	; 0
      38:	ea ea       	ldi	r30, 0xAA	; 170
      3a:	f2 e1       	ldi	r31, 0x12	; 18
      3c:	02 c0       	rjmp	.+4      	; 0x42 <__SREG__+0x3>
      3e:	05 90       	lpm	r0, Z+
      40:	0d 92       	st	X+, r0
      42:	a6 38       	cpi	r26, 0x86	; 134
      44:	b1 07       	cpc	r27, r17
      46:	d9 f7       	brne	.-10     	; 0x3e <__SP_H__>

00000048 <__do_clear_bss>:
      48:	20 e0       	ldi	r18, 0x00	; 0
      4a:	a6 e8       	ldi	r26, 0x86	; 134
      4c:	b0 e0       	ldi	r27, 0x00	; 0
      4e:	01 c0       	rjmp	.+2      	; 0x52 <.do_clear_bss_start>

00000050 <.do_clear_bss_loop>:
      50:	1d 92       	st	X+, r1

00000052 <.do_clear_bss_start>:
      52:	a3 3d       	cpi	r26, 0xD3	; 211
      54:	b2 07       	cpc	r27, r18
      56:	e1 f7       	brne	.-8      	; 0x50 <.do_clear_bss_loop>
      58:	98 d6       	rcall	.+3376   	; 0xd8a <main>
      5a:	25 c9       	rjmp	.-3510   	; 0xfffff2a6 <__eeprom_end+0xff7ef2a6>

0000005c <__bad_interrupt>:
      5c:	d1 cf       	rjmp	.-94     	; 0x0 <__vectors>

0000005e <__fixunssfsi>:
      5e:	cf 92       	push	r12
      60:	df 92       	push	r13
      62:	ef 92       	push	r14
      64:	ff 92       	push	r15
      66:	0f 93       	push	r16
      68:	1f 93       	push	r17
      6a:	6b 01       	movw	r12, r22
      6c:	7c 01       	movw	r14, r24
      6e:	20 e0       	ldi	r18, 0x00	; 0
      70:	30 e0       	ldi	r19, 0x00	; 0
      72:	40 e0       	ldi	r20, 0x00	; 0
      74:	5f e4       	ldi	r21, 0x4F	; 79
      76:	44 d3       	rcall	.+1672   	; 0x700 <__gesf2>
      78:	87 fd       	sbrc	r24, 7
      7a:	0c c0       	rjmp	.+24     	; 0x94 <__fixunssfsi+0x36>
      7c:	20 e0       	ldi	r18, 0x00	; 0
      7e:	30 e0       	ldi	r19, 0x00	; 0
      80:	40 e0       	ldi	r20, 0x00	; 0
      82:	5f e4       	ldi	r21, 0x4F	; 79
      84:	c7 01       	movw	r24, r14
      86:	b6 01       	movw	r22, r12
      88:	93 d1       	rcall	.+806    	; 0x3b0 <__subsf3>
      8a:	64 d3       	rcall	.+1736   	; 0x754 <__fixsfsi>
      8c:	8b 01       	movw	r16, r22
      8e:	9c 01       	movw	r18, r24
      90:	30 58       	subi	r19, 0x80	; 128
      92:	05 c0       	rjmp	.+10     	; 0x9e <__fixunssfsi+0x40>
      94:	c7 01       	movw	r24, r14
      96:	b6 01       	movw	r22, r12
      98:	5d d3       	rcall	.+1722   	; 0x754 <__fixsfsi>
      9a:	8b 01       	movw	r16, r22
      9c:	9c 01       	movw	r18, r24
      9e:	b8 01       	movw	r22, r16
      a0:	c9 01       	movw	r24, r18
      a2:	1f 91       	pop	r17
      a4:	0f 91       	pop	r16
      a6:	ff 90       	pop	r15
      a8:	ef 90       	pop	r14
      aa:	df 90       	pop	r13
      ac:	cf 90       	pop	r12
      ae:	08 95       	ret

000000b0 <_fpadd_parts>:
      b0:	a4 e0       	ldi	r26, 0x04	; 4
      b2:	b0 e0       	ldi	r27, 0x00	; 0
      b4:	ed e5       	ldi	r30, 0x5D	; 93
      b6:	f0 e0       	ldi	r31, 0x00	; 0
      b8:	c1 c8       	rjmp	.-3710   	; 0xfffff23c <__eeprom_end+0xff7ef23c>
      ba:	7c 01       	movw	r14, r24
      bc:	6a 01       	movw	r12, r20
      be:	fc 01       	movw	r30, r24
      c0:	80 81       	ld	r24, Z
      c2:	82 30       	cpi	r24, 0x02	; 2
      c4:	08 f4       	brcc	.+2      	; 0xc8 <_fpadd_parts+0x18>
      c6:	4a c1       	rjmp	.+660    	; 0x35c <_fpadd_parts+0x2ac>
      c8:	fb 01       	movw	r30, r22
      ca:	90 81       	ld	r25, Z
      cc:	92 30       	cpi	r25, 0x02	; 2
      ce:	08 f4       	brcc	.+2      	; 0xd2 <_fpadd_parts+0x22>
      d0:	42 c1       	rjmp	.+644    	; 0x356 <_fpadd_parts+0x2a6>
      d2:	84 30       	cpi	r24, 0x04	; 4
      d4:	79 f4       	brne	.+30     	; 0xf4 <_fpadd_parts+0x44>
      d6:	94 30       	cpi	r25, 0x04	; 4
      d8:	09 f0       	breq	.+2      	; 0xdc <_fpadd_parts+0x2c>
      da:	40 c1       	rjmp	.+640    	; 0x35c <_fpadd_parts+0x2ac>
      dc:	f7 01       	movw	r30, r14
      de:	91 81       	ldd	r25, Z+1	; 0x01
      e0:	fb 01       	movw	r30, r22
      e2:	81 81       	ldd	r24, Z+1	; 0x01
      e4:	98 17       	cp	r25, r24
      e6:	09 f4       	brne	.+2      	; 0xea <_fpadd_parts+0x3a>
      e8:	39 c1       	rjmp	.+626    	; 0x35c <_fpadd_parts+0x2ac>
      ea:	a2 e6       	ldi	r26, 0x62	; 98
      ec:	ea 2e       	mov	r14, r26
      ee:	a0 e0       	ldi	r26, 0x00	; 0
      f0:	fa 2e       	mov	r15, r26
      f2:	34 c1       	rjmp	.+616    	; 0x35c <_fpadd_parts+0x2ac>
      f4:	94 30       	cpi	r25, 0x04	; 4
      f6:	09 f4       	brne	.+2      	; 0xfa <_fpadd_parts+0x4a>
      f8:	2e c1       	rjmp	.+604    	; 0x356 <_fpadd_parts+0x2a6>
      fa:	92 30       	cpi	r25, 0x02	; 2
      fc:	91 f4       	brne	.+36     	; 0x122 <_fpadd_parts+0x72>
      fe:	82 30       	cpi	r24, 0x02	; 2
     100:	09 f0       	breq	.+2      	; 0x104 <_fpadd_parts+0x54>
     102:	2c c1       	rjmp	.+600    	; 0x35c <_fpadd_parts+0x2ac>
     104:	88 e0       	ldi	r24, 0x08	; 8
     106:	f7 01       	movw	r30, r14
     108:	da 01       	movw	r26, r20
     10a:	01 90       	ld	r0, Z+
     10c:	0d 92       	st	X+, r0
     10e:	8a 95       	dec	r24
     110:	e1 f7       	brne	.-8      	; 0x10a <_fpadd_parts+0x5a>
     112:	fb 01       	movw	r30, r22
     114:	81 81       	ldd	r24, Z+1	; 0x01
     116:	f7 01       	movw	r30, r14
     118:	91 81       	ldd	r25, Z+1	; 0x01
     11a:	89 23       	and	r24, r25
     11c:	fa 01       	movw	r30, r20
     11e:	81 83       	std	Z+1, r24	; 0x01
     120:	1c c1       	rjmp	.+568    	; 0x35a <_fpadd_parts+0x2aa>
     122:	82 30       	cpi	r24, 0x02	; 2
     124:	09 f4       	brne	.+2      	; 0x128 <_fpadd_parts+0x78>
     126:	17 c1       	rjmp	.+558    	; 0x356 <_fpadd_parts+0x2a6>
     128:	f7 01       	movw	r30, r14
     12a:	82 81       	ldd	r24, Z+2	; 0x02
     12c:	93 81       	ldd	r25, Z+3	; 0x03
     12e:	fb 01       	movw	r30, r22
     130:	a2 81       	ldd	r26, Z+2	; 0x02
     132:	b3 81       	ldd	r27, Z+3	; 0x03
     134:	f7 01       	movw	r30, r14
     136:	04 81       	ldd	r16, Z+4	; 0x04
     138:	15 81       	ldd	r17, Z+5	; 0x05
     13a:	26 81       	ldd	r18, Z+6	; 0x06
     13c:	37 81       	ldd	r19, Z+7	; 0x07
     13e:	fb 01       	movw	r30, r22
     140:	84 80       	ldd	r8, Z+4	; 0x04
     142:	95 80       	ldd	r9, Z+5	; 0x05
     144:	a6 80       	ldd	r10, Z+6	; 0x06
     146:	b7 80       	ldd	r11, Z+7	; 0x07
     148:	fc 01       	movw	r30, r24
     14a:	ea 1b       	sub	r30, r26
     14c:	fb 0b       	sbc	r31, r27
     14e:	af 01       	movw	r20, r30
     150:	f7 ff       	sbrs	r31, 7
     152:	04 c0       	rjmp	.+8      	; 0x15c <_fpadd_parts+0xac>
     154:	44 27       	eor	r20, r20
     156:	55 27       	eor	r21, r21
     158:	4e 1b       	sub	r20, r30
     15a:	5f 0b       	sbc	r21, r31
     15c:	40 32       	cpi	r20, 0x20	; 32
     15e:	51 05       	cpc	r21, r1
     160:	0c f0       	brlt	.+2      	; 0x164 <_fpadd_parts+0xb4>
     162:	74 c0       	rjmp	.+232    	; 0x24c <_fpadd_parts+0x19c>
     164:	1e 16       	cp	r1, r30
     166:	1f 06       	cpc	r1, r31
     168:	b4 f5       	brge	.+108    	; 0x1d6 <_fpadd_parts+0x126>
     16a:	24 01       	movw	r4, r8
     16c:	35 01       	movw	r6, r10
     16e:	04 2e       	mov	r0, r20
     170:	04 c0       	rjmp	.+8      	; 0x17a <_fpadd_parts+0xca>
     172:	76 94       	lsr	r7
     174:	67 94       	ror	r6
     176:	57 94       	ror	r5
     178:	47 94       	ror	r4
     17a:	0a 94       	dec	r0
     17c:	d2 f7       	brpl	.-12     	; 0x172 <_fpadd_parts+0xc2>
     17e:	49 82       	std	Y+1, r4	; 0x01
     180:	5a 82       	std	Y+2, r5	; 0x02
     182:	6b 82       	std	Y+3, r6	; 0x03
     184:	7c 82       	std	Y+4, r7	; 0x04
     186:	41 2c       	mov	r4, r1
     188:	51 2c       	mov	r5, r1
     18a:	32 01       	movw	r6, r4
     18c:	43 94       	inc	r4
     18e:	04 c0       	rjmp	.+8      	; 0x198 <_fpadd_parts+0xe8>
     190:	44 0c       	add	r4, r4
     192:	55 1c       	adc	r5, r5
     194:	66 1c       	adc	r6, r6
     196:	77 1c       	adc	r7, r7
     198:	4a 95       	dec	r20
     19a:	d2 f7       	brpl	.-12     	; 0x190 <_fpadd_parts+0xe0>
     19c:	41 e0       	ldi	r20, 0x01	; 1
     19e:	44 1a       	sub	r4, r20
     1a0:	51 08       	sbc	r5, r1
     1a2:	61 08       	sbc	r6, r1
     1a4:	71 08       	sbc	r7, r1
     1a6:	48 20       	and	r4, r8
     1a8:	59 20       	and	r5, r9
     1aa:	6a 20       	and	r6, r10
     1ac:	7b 20       	and	r7, r11
     1ae:	81 2c       	mov	r8, r1
     1b0:	91 2c       	mov	r9, r1
     1b2:	54 01       	movw	r10, r8
     1b4:	83 94       	inc	r8
     1b6:	45 28       	or	r4, r5
     1b8:	46 28       	or	r4, r6
     1ba:	47 28       	or	r4, r7
     1bc:	19 f4       	brne	.+6      	; 0x1c4 <_fpadd_parts+0x114>
     1be:	81 2c       	mov	r8, r1
     1c0:	91 2c       	mov	r9, r1
     1c2:	54 01       	movw	r10, r8
     1c4:	49 80       	ldd	r4, Y+1	; 0x01
     1c6:	5a 80       	ldd	r5, Y+2	; 0x02
     1c8:	6b 80       	ldd	r6, Y+3	; 0x03
     1ca:	7c 80       	ldd	r7, Y+4	; 0x04
     1cc:	84 28       	or	r8, r4
     1ce:	95 28       	or	r9, r5
     1d0:	a6 28       	or	r10, r6
     1d2:	b7 28       	or	r11, r7
     1d4:	46 c0       	rjmp	.+140    	; 0x262 <_fpadd_parts+0x1b2>
     1d6:	ef 2b       	or	r30, r31
     1d8:	09 f4       	brne	.+2      	; 0x1dc <_fpadd_parts+0x12c>
     1da:	43 c0       	rjmp	.+134    	; 0x262 <_fpadd_parts+0x1b2>
     1dc:	84 0f       	add	r24, r20
     1de:	95 1f       	adc	r25, r21
     1e0:	28 01       	movw	r4, r16
     1e2:	39 01       	movw	r6, r18
     1e4:	04 2e       	mov	r0, r20
     1e6:	04 c0       	rjmp	.+8      	; 0x1f0 <_fpadd_parts+0x140>
     1e8:	76 94       	lsr	r7
     1ea:	67 94       	ror	r6
     1ec:	57 94       	ror	r5
     1ee:	47 94       	ror	r4
     1f0:	0a 94       	dec	r0
     1f2:	d2 f7       	brpl	.-12     	; 0x1e8 <_fpadd_parts+0x138>
     1f4:	49 82       	std	Y+1, r4	; 0x01
     1f6:	5a 82       	std	Y+2, r5	; 0x02
     1f8:	6b 82       	std	Y+3, r6	; 0x03
     1fa:	7c 82       	std	Y+4, r7	; 0x04
     1fc:	41 2c       	mov	r4, r1
     1fe:	51 2c       	mov	r5, r1
     200:	32 01       	movw	r6, r4
     202:	43 94       	inc	r4
     204:	04 c0       	rjmp	.+8      	; 0x20e <_fpadd_parts+0x15e>
     206:	44 0c       	add	r4, r4
     208:	55 1c       	adc	r5, r5
     20a:	66 1c       	adc	r6, r6
     20c:	77 1c       	adc	r7, r7
     20e:	4a 95       	dec	r20
     210:	d2 f7       	brpl	.-12     	; 0x206 <_fpadd_parts+0x156>
     212:	41 e0       	ldi	r20, 0x01	; 1
     214:	44 1a       	sub	r4, r20
     216:	51 08       	sbc	r5, r1
     218:	61 08       	sbc	r6, r1
     21a:	71 08       	sbc	r7, r1
     21c:	40 22       	and	r4, r16
     21e:	51 22       	and	r5, r17
     220:	62 22       	and	r6, r18
     222:	73 22       	and	r7, r19
     224:	01 e0       	ldi	r16, 0x01	; 1
     226:	10 e0       	ldi	r17, 0x00	; 0
     228:	20 e0       	ldi	r18, 0x00	; 0
     22a:	30 e0       	ldi	r19, 0x00	; 0
     22c:	45 28       	or	r4, r5
     22e:	46 28       	or	r4, r6
     230:	47 28       	or	r4, r7
     232:	19 f4       	brne	.+6      	; 0x23a <_fpadd_parts+0x18a>
     234:	00 e0       	ldi	r16, 0x00	; 0
     236:	10 e0       	ldi	r17, 0x00	; 0
     238:	98 01       	movw	r18, r16
     23a:	49 80       	ldd	r4, Y+1	; 0x01
     23c:	5a 80       	ldd	r5, Y+2	; 0x02
     23e:	6b 80       	ldd	r6, Y+3	; 0x03
     240:	7c 80       	ldd	r7, Y+4	; 0x04
     242:	04 29       	or	r16, r4
     244:	15 29       	or	r17, r5
     246:	26 29       	or	r18, r6
     248:	37 29       	or	r19, r7
     24a:	0b c0       	rjmp	.+22     	; 0x262 <_fpadd_parts+0x1b2>
     24c:	a8 17       	cp	r26, r24
     24e:	b9 07       	cpc	r27, r25
     250:	24 f4       	brge	.+8      	; 0x25a <_fpadd_parts+0x1aa>
     252:	81 2c       	mov	r8, r1
     254:	91 2c       	mov	r9, r1
     256:	54 01       	movw	r10, r8
     258:	04 c0       	rjmp	.+8      	; 0x262 <_fpadd_parts+0x1b2>
     25a:	cd 01       	movw	r24, r26
     25c:	00 e0       	ldi	r16, 0x00	; 0
     25e:	10 e0       	ldi	r17, 0x00	; 0
     260:	98 01       	movw	r18, r16
     262:	f7 01       	movw	r30, r14
     264:	41 81       	ldd	r20, Z+1	; 0x01
     266:	fb 01       	movw	r30, r22
     268:	51 81       	ldd	r21, Z+1	; 0x01
     26a:	45 17       	cp	r20, r21
     26c:	09 f4       	brne	.+2      	; 0x270 <_fpadd_parts+0x1c0>
     26e:	46 c0       	rjmp	.+140    	; 0x2fc <_fpadd_parts+0x24c>
     270:	44 23       	and	r20, r20
     272:	49 f0       	breq	.+18     	; 0x286 <_fpadd_parts+0x1d6>
     274:	24 01       	movw	r4, r8
     276:	35 01       	movw	r6, r10
     278:	40 1a       	sub	r4, r16
     27a:	51 0a       	sbc	r5, r17
     27c:	62 0a       	sbc	r6, r18
     27e:	73 0a       	sbc	r7, r19
     280:	93 01       	movw	r18, r6
     282:	82 01       	movw	r16, r4
     284:	04 c0       	rjmp	.+8      	; 0x28e <_fpadd_parts+0x1de>
     286:	08 19       	sub	r16, r8
     288:	19 09       	sbc	r17, r9
     28a:	2a 09       	sbc	r18, r10
     28c:	3b 09       	sbc	r19, r11
     28e:	37 fd       	sbrc	r19, 7
     290:	05 c0       	rjmp	.+10     	; 0x29c <_fpadd_parts+0x1ec>
     292:	f6 01       	movw	r30, r12
     294:	11 82       	std	Z+1, r1	; 0x01
     296:	93 83       	std	Z+3, r25	; 0x03
     298:	82 83       	std	Z+2, r24	; 0x02
     29a:	0c c0       	rjmp	.+24     	; 0x2b4 <_fpadd_parts+0x204>
     29c:	41 e0       	ldi	r20, 0x01	; 1
     29e:	f6 01       	movw	r30, r12
     2a0:	41 83       	std	Z+1, r20	; 0x01
     2a2:	93 83       	std	Z+3, r25	; 0x03
     2a4:	82 83       	std	Z+2, r24	; 0x02
     2a6:	30 95       	com	r19
     2a8:	20 95       	com	r18
     2aa:	10 95       	com	r17
     2ac:	01 95       	neg	r16
     2ae:	1f 4f       	sbci	r17, 0xFF	; 255
     2b0:	2f 4f       	sbci	r18, 0xFF	; 255
     2b2:	3f 4f       	sbci	r19, 0xFF	; 255
     2b4:	04 83       	std	Z+4, r16	; 0x04
     2b6:	15 83       	std	Z+5, r17	; 0x05
     2b8:	26 83       	std	Z+6, r18	; 0x06
     2ba:	37 83       	std	Z+7, r19	; 0x07
     2bc:	0e c0       	rjmp	.+28     	; 0x2da <_fpadd_parts+0x22a>
     2be:	88 0f       	add	r24, r24
     2c0:	99 1f       	adc	r25, r25
     2c2:	aa 1f       	adc	r26, r26
     2c4:	bb 1f       	adc	r27, r27
     2c6:	f6 01       	movw	r30, r12
     2c8:	84 83       	std	Z+4, r24	; 0x04
     2ca:	95 83       	std	Z+5, r25	; 0x05
     2cc:	a6 83       	std	Z+6, r26	; 0x06
     2ce:	b7 83       	std	Z+7, r27	; 0x07
     2d0:	82 81       	ldd	r24, Z+2	; 0x02
     2d2:	93 81       	ldd	r25, Z+3	; 0x03
     2d4:	01 97       	sbiw	r24, 0x01	; 1
     2d6:	93 83       	std	Z+3, r25	; 0x03
     2d8:	82 83       	std	Z+2, r24	; 0x02
     2da:	f6 01       	movw	r30, r12
     2dc:	84 81       	ldd	r24, Z+4	; 0x04
     2de:	95 81       	ldd	r25, Z+5	; 0x05
     2e0:	a6 81       	ldd	r26, Z+6	; 0x06
     2e2:	b7 81       	ldd	r27, Z+7	; 0x07
     2e4:	ac 01       	movw	r20, r24
     2e6:	bd 01       	movw	r22, r26
     2e8:	41 50       	subi	r20, 0x01	; 1
     2ea:	51 09       	sbc	r21, r1
     2ec:	61 09       	sbc	r22, r1
     2ee:	71 09       	sbc	r23, r1
     2f0:	4f 3f       	cpi	r20, 0xFF	; 255
     2f2:	5f 4f       	sbci	r21, 0xFF	; 255
     2f4:	6f 4f       	sbci	r22, 0xFF	; 255
     2f6:	7f 43       	sbci	r23, 0x3F	; 63
     2f8:	10 f3       	brcs	.-60     	; 0x2be <_fpadd_parts+0x20e>
     2fa:	0c c0       	rjmp	.+24     	; 0x314 <_fpadd_parts+0x264>
     2fc:	f6 01       	movw	r30, r12
     2fe:	41 83       	std	Z+1, r20	; 0x01
     300:	93 83       	std	Z+3, r25	; 0x03
     302:	82 83       	std	Z+2, r24	; 0x02
     304:	08 0d       	add	r16, r8
     306:	19 1d       	adc	r17, r9
     308:	2a 1d       	adc	r18, r10
     30a:	3b 1d       	adc	r19, r11
     30c:	04 83       	std	Z+4, r16	; 0x04
     30e:	15 83       	std	Z+5, r17	; 0x05
     310:	26 83       	std	Z+6, r18	; 0x06
     312:	37 83       	std	Z+7, r19	; 0x07
     314:	83 e0       	ldi	r24, 0x03	; 3
     316:	f6 01       	movw	r30, r12
     318:	80 83       	st	Z, r24
     31a:	44 81       	ldd	r20, Z+4	; 0x04
     31c:	55 81       	ldd	r21, Z+5	; 0x05
     31e:	66 81       	ldd	r22, Z+6	; 0x06
     320:	77 81       	ldd	r23, Z+7	; 0x07
     322:	77 ff       	sbrs	r23, 7
     324:	1a c0       	rjmp	.+52     	; 0x35a <_fpadd_parts+0x2aa>
     326:	db 01       	movw	r26, r22
     328:	ca 01       	movw	r24, r20
     32a:	81 70       	andi	r24, 0x01	; 1
     32c:	99 27       	eor	r25, r25
     32e:	aa 27       	eor	r26, r26
     330:	bb 27       	eor	r27, r27
     332:	76 95       	lsr	r23
     334:	67 95       	ror	r22
     336:	57 95       	ror	r21
     338:	47 95       	ror	r20
     33a:	84 2b       	or	r24, r20
     33c:	95 2b       	or	r25, r21
     33e:	a6 2b       	or	r26, r22
     340:	b7 2b       	or	r27, r23
     342:	84 83       	std	Z+4, r24	; 0x04
     344:	95 83       	std	Z+5, r25	; 0x05
     346:	a6 83       	std	Z+6, r26	; 0x06
     348:	b7 83       	std	Z+7, r27	; 0x07
     34a:	82 81       	ldd	r24, Z+2	; 0x02
     34c:	93 81       	ldd	r25, Z+3	; 0x03
     34e:	01 96       	adiw	r24, 0x01	; 1
     350:	93 83       	std	Z+3, r25	; 0x03
     352:	82 83       	std	Z+2, r24	; 0x02
     354:	02 c0       	rjmp	.+4      	; 0x35a <_fpadd_parts+0x2aa>
     356:	7b 01       	movw	r14, r22
     358:	01 c0       	rjmp	.+2      	; 0x35c <_fpadd_parts+0x2ac>
     35a:	76 01       	movw	r14, r12
     35c:	c7 01       	movw	r24, r14
     35e:	24 96       	adiw	r28, 0x04	; 4
     360:	e0 e1       	ldi	r30, 0x10	; 16
     362:	88 c7       	rjmp	.+3856   	; 0x1274 <__epilogue_restores__+0x4>

00000364 <__addsf3>:
     364:	a0 e2       	ldi	r26, 0x20	; 32
     366:	b0 e0       	ldi	r27, 0x00	; 0
     368:	e7 eb       	ldi	r30, 0xB7	; 183
     36a:	f1 e0       	ldi	r31, 0x01	; 1
     36c:	75 c7       	rjmp	.+3818   	; 0x1258 <__prologue_saves__+0x20>
     36e:	6d 8f       	std	Y+29, r22	; 0x1d
     370:	7e 8f       	std	Y+30, r23	; 0x1e
     372:	8f 8f       	std	Y+31, r24	; 0x1f
     374:	98 a3       	std	Y+32, r25	; 0x20
     376:	29 8f       	std	Y+25, r18	; 0x19
     378:	3a 8f       	std	Y+26, r19	; 0x1a
     37a:	4b 8f       	std	Y+27, r20	; 0x1b
     37c:	5c 8f       	std	Y+28, r21	; 0x1c
     37e:	be 01       	movw	r22, r28
     380:	6f 5e       	subi	r22, 0xEF	; 239
     382:	7f 4f       	sbci	r23, 0xFF	; 255
     384:	ce 01       	movw	r24, r28
     386:	4d 96       	adiw	r24, 0x1d	; 29
     388:	6d d3       	rcall	.+1754   	; 0xa64 <__unpack_f>
     38a:	be 01       	movw	r22, r28
     38c:	67 5f       	subi	r22, 0xF7	; 247
     38e:	7f 4f       	sbci	r23, 0xFF	; 255
     390:	ce 01       	movw	r24, r28
     392:	49 96       	adiw	r24, 0x19	; 25
     394:	67 d3       	rcall	.+1742   	; 0xa64 <__unpack_f>
     396:	ae 01       	movw	r20, r28
     398:	4f 5f       	subi	r20, 0xFF	; 255
     39a:	5f 4f       	sbci	r21, 0xFF	; 255
     39c:	be 01       	movw	r22, r28
     39e:	67 5f       	subi	r22, 0xF7	; 247
     3a0:	7f 4f       	sbci	r23, 0xFF	; 255
     3a2:	ce 01       	movw	r24, r28
     3a4:	41 96       	adiw	r24, 0x11	; 17
     3a6:	84 de       	rcall	.-760    	; 0xb0 <_fpadd_parts>
     3a8:	93 d2       	rcall	.+1318   	; 0x8d0 <__pack_f>
     3aa:	a0 96       	adiw	r28, 0x20	; 32
     3ac:	e2 e0       	ldi	r30, 0x02	; 2
     3ae:	70 c7       	rjmp	.+3808   	; 0x1290 <__epilogue_restores__+0x20>

000003b0 <__subsf3>:
     3b0:	a0 e2       	ldi	r26, 0x20	; 32
     3b2:	b0 e0       	ldi	r27, 0x00	; 0
     3b4:	ed ed       	ldi	r30, 0xDD	; 221
     3b6:	f1 e0       	ldi	r31, 0x01	; 1
     3b8:	4f c7       	rjmp	.+3742   	; 0x1258 <__prologue_saves__+0x20>
     3ba:	6d 8f       	std	Y+29, r22	; 0x1d
     3bc:	7e 8f       	std	Y+30, r23	; 0x1e
     3be:	8f 8f       	std	Y+31, r24	; 0x1f
     3c0:	98 a3       	std	Y+32, r25	; 0x20
     3c2:	29 8f       	std	Y+25, r18	; 0x19
     3c4:	3a 8f       	std	Y+26, r19	; 0x1a
     3c6:	4b 8f       	std	Y+27, r20	; 0x1b
     3c8:	5c 8f       	std	Y+28, r21	; 0x1c
     3ca:	be 01       	movw	r22, r28
     3cc:	6f 5e       	subi	r22, 0xEF	; 239
     3ce:	7f 4f       	sbci	r23, 0xFF	; 255
     3d0:	ce 01       	movw	r24, r28
     3d2:	4d 96       	adiw	r24, 0x1d	; 29
     3d4:	47 d3       	rcall	.+1678   	; 0xa64 <__unpack_f>
     3d6:	be 01       	movw	r22, r28
     3d8:	67 5f       	subi	r22, 0xF7	; 247
     3da:	7f 4f       	sbci	r23, 0xFF	; 255
     3dc:	ce 01       	movw	r24, r28
     3de:	49 96       	adiw	r24, 0x19	; 25
     3e0:	41 d3       	rcall	.+1666   	; 0xa64 <__unpack_f>
     3e2:	8a 85       	ldd	r24, Y+10	; 0x0a
     3e4:	91 e0       	ldi	r25, 0x01	; 1
     3e6:	89 27       	eor	r24, r25
     3e8:	8a 87       	std	Y+10, r24	; 0x0a
     3ea:	ae 01       	movw	r20, r28
     3ec:	4f 5f       	subi	r20, 0xFF	; 255
     3ee:	5f 4f       	sbci	r21, 0xFF	; 255
     3f0:	be 01       	movw	r22, r28
     3f2:	67 5f       	subi	r22, 0xF7	; 247
     3f4:	7f 4f       	sbci	r23, 0xFF	; 255
     3f6:	ce 01       	movw	r24, r28
     3f8:	41 96       	adiw	r24, 0x11	; 17
     3fa:	5a de       	rcall	.-844    	; 0xb0 <_fpadd_parts>
     3fc:	69 d2       	rcall	.+1234   	; 0x8d0 <__pack_f>
     3fe:	a0 96       	adiw	r28, 0x20	; 32
     400:	e2 e0       	ldi	r30, 0x02	; 2
     402:	46 c7       	rjmp	.+3724   	; 0x1290 <__epilogue_restores__+0x20>

00000404 <__mulsf3>:
     404:	a0 e2       	ldi	r26, 0x20	; 32
     406:	b0 e0       	ldi	r27, 0x00	; 0
     408:	e7 e0       	ldi	r30, 0x07	; 7
     40a:	f2 e0       	ldi	r31, 0x02	; 2
     40c:	17 c7       	rjmp	.+3630   	; 0x123c <__prologue_saves__+0x4>
     40e:	6d 8f       	std	Y+29, r22	; 0x1d
     410:	7e 8f       	std	Y+30, r23	; 0x1e
     412:	8f 8f       	std	Y+31, r24	; 0x1f
     414:	98 a3       	std	Y+32, r25	; 0x20
     416:	29 8f       	std	Y+25, r18	; 0x19
     418:	3a 8f       	std	Y+26, r19	; 0x1a
     41a:	4b 8f       	std	Y+27, r20	; 0x1b
     41c:	5c 8f       	std	Y+28, r21	; 0x1c
     41e:	be 01       	movw	r22, r28
     420:	6f 5e       	subi	r22, 0xEF	; 239
     422:	7f 4f       	sbci	r23, 0xFF	; 255
     424:	ce 01       	movw	r24, r28
     426:	4d 96       	adiw	r24, 0x1d	; 29
     428:	1d d3       	rcall	.+1594   	; 0xa64 <__unpack_f>
     42a:	be 01       	movw	r22, r28
     42c:	67 5f       	subi	r22, 0xF7	; 247
     42e:	7f 4f       	sbci	r23, 0xFF	; 255
     430:	ce 01       	movw	r24, r28
     432:	49 96       	adiw	r24, 0x19	; 25
     434:	17 d3       	rcall	.+1582   	; 0xa64 <__unpack_f>
     436:	99 89       	ldd	r25, Y+17	; 0x11
     438:	92 30       	cpi	r25, 0x02	; 2
     43a:	08 f4       	brcc	.+2      	; 0x43e <__mulsf3+0x3a>
     43c:	12 c0       	rjmp	.+36     	; 0x462 <__stack+0x3>
     43e:	89 85       	ldd	r24, Y+9	; 0x09
     440:	82 30       	cpi	r24, 0x02	; 2
     442:	08 f4       	brcc	.+2      	; 0x446 <__mulsf3+0x42>
     444:	1a c0       	rjmp	.+52     	; 0x47a <__stack+0x1b>
     446:	94 30       	cpi	r25, 0x04	; 4
     448:	21 f4       	brne	.+8      	; 0x452 <__mulsf3+0x4e>
     44a:	82 30       	cpi	r24, 0x02	; 2
     44c:	09 f4       	brne	.+2      	; 0x450 <__mulsf3+0x4c>
     44e:	b4 c0       	rjmp	.+360    	; 0x5b8 <__stack+0x159>
     450:	08 c0       	rjmp	.+16     	; 0x462 <__stack+0x3>
     452:	84 30       	cpi	r24, 0x04	; 4
     454:	21 f4       	brne	.+8      	; 0x45e <__mulsf3+0x5a>
     456:	92 30       	cpi	r25, 0x02	; 2
     458:	09 f4       	brne	.+2      	; 0x45c <__mulsf3+0x58>
     45a:	ae c0       	rjmp	.+348    	; 0x5b8 <__stack+0x159>
     45c:	0e c0       	rjmp	.+28     	; 0x47a <__stack+0x1b>
     45e:	92 30       	cpi	r25, 0x02	; 2
     460:	51 f4       	brne	.+20     	; 0x476 <__stack+0x17>
     462:	81 e0       	ldi	r24, 0x01	; 1
     464:	2a 89       	ldd	r18, Y+18	; 0x12
     466:	9a 85       	ldd	r25, Y+10	; 0x0a
     468:	29 13       	cpse	r18, r25
     46a:	01 c0       	rjmp	.+2      	; 0x46e <__stack+0xf>
     46c:	80 e0       	ldi	r24, 0x00	; 0
     46e:	8a 8b       	std	Y+18, r24	; 0x12
     470:	ce 01       	movw	r24, r28
     472:	41 96       	adiw	r24, 0x11	; 17
     474:	a3 c0       	rjmp	.+326    	; 0x5bc <__stack+0x15d>
     476:	82 30       	cpi	r24, 0x02	; 2
     478:	51 f4       	brne	.+20     	; 0x48e <__stack+0x2f>
     47a:	81 e0       	ldi	r24, 0x01	; 1
     47c:	2a 89       	ldd	r18, Y+18	; 0x12
     47e:	9a 85       	ldd	r25, Y+10	; 0x0a
     480:	29 13       	cpse	r18, r25
     482:	01 c0       	rjmp	.+2      	; 0x486 <__stack+0x27>
     484:	80 e0       	ldi	r24, 0x00	; 0
     486:	8a 87       	std	Y+10, r24	; 0x0a
     488:	ce 01       	movw	r24, r28
     48a:	09 96       	adiw	r24, 0x09	; 9
     48c:	97 c0       	rjmp	.+302    	; 0x5bc <__stack+0x15d>
     48e:	8d 88       	ldd	r8, Y+21	; 0x15
     490:	9e 88       	ldd	r9, Y+22	; 0x16
     492:	af 88       	ldd	r10, Y+23	; 0x17
     494:	b8 8c       	ldd	r11, Y+24	; 0x18
     496:	0d 85       	ldd	r16, Y+13	; 0x0d
     498:	1e 85       	ldd	r17, Y+14	; 0x0e
     49a:	2f 85       	ldd	r18, Y+15	; 0x0f
     49c:	38 89       	ldd	r19, Y+16	; 0x10
     49e:	e0 e2       	ldi	r30, 0x20	; 32
     4a0:	f0 e0       	ldi	r31, 0x00	; 0
     4a2:	80 e0       	ldi	r24, 0x00	; 0
     4a4:	90 e0       	ldi	r25, 0x00	; 0
     4a6:	dc 01       	movw	r26, r24
     4a8:	c1 2c       	mov	r12, r1
     4aa:	d1 2c       	mov	r13, r1
     4ac:	76 01       	movw	r14, r12
     4ae:	40 e0       	ldi	r20, 0x00	; 0
     4b0:	50 e0       	ldi	r21, 0x00	; 0
     4b2:	ba 01       	movw	r22, r20
     4b4:	80 fe       	sbrs	r8, 0
     4b6:	18 c0       	rjmp	.+48     	; 0x4e8 <__stack+0x89>
     4b8:	40 0f       	add	r20, r16
     4ba:	51 1f       	adc	r21, r17
     4bc:	62 1f       	adc	r22, r18
     4be:	73 1f       	adc	r23, r19
     4c0:	8c 0d       	add	r24, r12
     4c2:	9d 1d       	adc	r25, r13
     4c4:	ae 1d       	adc	r26, r14
     4c6:	bf 1d       	adc	r27, r15
     4c8:	41 2c       	mov	r4, r1
     4ca:	51 2c       	mov	r5, r1
     4cc:	32 01       	movw	r6, r4
     4ce:	43 94       	inc	r4
     4d0:	40 17       	cp	r20, r16
     4d2:	51 07       	cpc	r21, r17
     4d4:	62 07       	cpc	r22, r18
     4d6:	73 07       	cpc	r23, r19
     4d8:	18 f0       	brcs	.+6      	; 0x4e0 <__stack+0x81>
     4da:	41 2c       	mov	r4, r1
     4dc:	51 2c       	mov	r5, r1
     4de:	32 01       	movw	r6, r4
     4e0:	84 0d       	add	r24, r4
     4e2:	95 1d       	adc	r25, r5
     4e4:	a6 1d       	adc	r26, r6
     4e6:	b7 1d       	adc	r27, r7
     4e8:	cc 0c       	add	r12, r12
     4ea:	dd 1c       	adc	r13, r13
     4ec:	ee 1c       	adc	r14, r14
     4ee:	ff 1c       	adc	r15, r15
     4f0:	37 ff       	sbrs	r19, 7
     4f2:	02 c0       	rjmp	.+4      	; 0x4f8 <__stack+0x99>
     4f4:	68 94       	set
     4f6:	c0 f8       	bld	r12, 0
     4f8:	00 0f       	add	r16, r16
     4fa:	11 1f       	adc	r17, r17
     4fc:	22 1f       	adc	r18, r18
     4fe:	33 1f       	adc	r19, r19
     500:	b6 94       	lsr	r11
     502:	a7 94       	ror	r10
     504:	97 94       	ror	r9
     506:	87 94       	ror	r8
     508:	31 97       	sbiw	r30, 0x01	; 1
     50a:	a1 f6       	brne	.-88     	; 0x4b4 <__stack+0x55>
     50c:	2b 89       	ldd	r18, Y+19	; 0x13
     50e:	3c 89       	ldd	r19, Y+20	; 0x14
     510:	eb 85       	ldd	r30, Y+11	; 0x0b
     512:	fc 85       	ldd	r31, Y+12	; 0x0c
     514:	2e 0f       	add	r18, r30
     516:	3f 1f       	adc	r19, r31
     518:	2e 5f       	subi	r18, 0xFE	; 254
     51a:	3f 4f       	sbci	r19, 0xFF	; 255
     51c:	3c 83       	std	Y+4, r19	; 0x04
     51e:	2b 83       	std	Y+3, r18	; 0x03
     520:	21 e0       	ldi	r18, 0x01	; 1
     522:	ea 89       	ldd	r30, Y+18	; 0x12
     524:	3a 85       	ldd	r19, Y+10	; 0x0a
     526:	e3 13       	cpse	r30, r19
     528:	01 c0       	rjmp	.+2      	; 0x52c <__stack+0xcd>
     52a:	20 e0       	ldi	r18, 0x00	; 0
     52c:	2a 83       	std	Y+2, r18	; 0x02
     52e:	eb 81       	ldd	r30, Y+3	; 0x03
     530:	fc 81       	ldd	r31, Y+4	; 0x04
     532:	0c c0       	rjmp	.+24     	; 0x54c <__stack+0xed>
     534:	80 ff       	sbrs	r24, 0
     536:	05 c0       	rjmp	.+10     	; 0x542 <__stack+0xe3>
     538:	76 95       	lsr	r23
     53a:	67 95       	ror	r22
     53c:	57 95       	ror	r21
     53e:	47 95       	ror	r20
     540:	70 68       	ori	r23, 0x80	; 128
     542:	b6 95       	lsr	r27
     544:	a7 95       	ror	r26
     546:	97 95       	ror	r25
     548:	87 95       	ror	r24
     54a:	31 96       	adiw	r30, 0x01	; 1
     54c:	b7 fd       	sbrc	r27, 7
     54e:	f2 cf       	rjmp	.-28     	; 0x534 <__stack+0xd5>
     550:	9f 01       	movw	r18, r30
     552:	0c c0       	rjmp	.+24     	; 0x56c <__stack+0x10d>
     554:	88 0f       	add	r24, r24
     556:	99 1f       	adc	r25, r25
     558:	aa 1f       	adc	r26, r26
     55a:	bb 1f       	adc	r27, r27
     55c:	77 fd       	sbrc	r23, 7
     55e:	81 60       	ori	r24, 0x01	; 1
     560:	44 0f       	add	r20, r20
     562:	55 1f       	adc	r21, r21
     564:	66 1f       	adc	r22, r22
     566:	77 1f       	adc	r23, r23
     568:	21 50       	subi	r18, 0x01	; 1
     56a:	31 09       	sbc	r19, r1
     56c:	00 97       	sbiw	r24, 0x00	; 0
     56e:	a1 05       	cpc	r26, r1
     570:	e0 e4       	ldi	r30, 0x40	; 64
     572:	be 07       	cpc	r27, r30
     574:	78 f3       	brcs	.-34     	; 0x554 <__stack+0xf5>
     576:	2b 83       	std	Y+3, r18	; 0x03
     578:	3c 83       	std	Y+4, r19	; 0x04
     57a:	8c 01       	movw	r16, r24
     57c:	9d 01       	movw	r18, r26
     57e:	0f 77       	andi	r16, 0x7F	; 127
     580:	11 27       	eor	r17, r17
     582:	22 27       	eor	r18, r18
     584:	33 27       	eor	r19, r19
     586:	00 34       	cpi	r16, 0x40	; 64
     588:	11 05       	cpc	r17, r1
     58a:	21 05       	cpc	r18, r1
     58c:	31 05       	cpc	r19, r1
     58e:	59 f4       	brne	.+22     	; 0x5a6 <__stack+0x147>
     590:	87 fd       	sbrc	r24, 7
     592:	09 c0       	rjmp	.+18     	; 0x5a6 <__stack+0x147>
     594:	45 2b       	or	r20, r21
     596:	46 2b       	or	r20, r22
     598:	47 2b       	or	r20, r23
     59a:	29 f0       	breq	.+10     	; 0x5a6 <__stack+0x147>
     59c:	80 5c       	subi	r24, 0xC0	; 192
     59e:	9f 4f       	sbci	r25, 0xFF	; 255
     5a0:	af 4f       	sbci	r26, 0xFF	; 255
     5a2:	bf 4f       	sbci	r27, 0xFF	; 255
     5a4:	80 78       	andi	r24, 0x80	; 128
     5a6:	8d 83       	std	Y+5, r24	; 0x05
     5a8:	9e 83       	std	Y+6, r25	; 0x06
     5aa:	af 83       	std	Y+7, r26	; 0x07
     5ac:	b8 87       	std	Y+8, r27	; 0x08
     5ae:	83 e0       	ldi	r24, 0x03	; 3
     5b0:	89 83       	std	Y+1, r24	; 0x01
     5b2:	ce 01       	movw	r24, r28
     5b4:	01 96       	adiw	r24, 0x01	; 1
     5b6:	02 c0       	rjmp	.+4      	; 0x5bc <__stack+0x15d>
     5b8:	82 e6       	ldi	r24, 0x62	; 98
     5ba:	90 e0       	ldi	r25, 0x00	; 0
     5bc:	89 d1       	rcall	.+786    	; 0x8d0 <__pack_f>
     5be:	a0 96       	adiw	r28, 0x20	; 32
     5c0:	e0 e1       	ldi	r30, 0x10	; 16
     5c2:	58 c6       	rjmp	.+3248   	; 0x1274 <__epilogue_restores__+0x4>

000005c4 <__divsf3>:
     5c4:	a8 e1       	ldi	r26, 0x18	; 24
     5c6:	b0 e0       	ldi	r27, 0x00	; 0
     5c8:	e7 ee       	ldi	r30, 0xE7	; 231
     5ca:	f2 e0       	ldi	r31, 0x02	; 2
     5cc:	3f c6       	rjmp	.+3198   	; 0x124c <__prologue_saves__+0x14>
     5ce:	6d 8b       	std	Y+21, r22	; 0x15
     5d0:	7e 8b       	std	Y+22, r23	; 0x16
     5d2:	8f 8b       	std	Y+23, r24	; 0x17
     5d4:	98 8f       	std	Y+24, r25	; 0x18
     5d6:	29 8b       	std	Y+17, r18	; 0x11
     5d8:	3a 8b       	std	Y+18, r19	; 0x12
     5da:	4b 8b       	std	Y+19, r20	; 0x13
     5dc:	5c 8b       	std	Y+20, r21	; 0x14
     5de:	be 01       	movw	r22, r28
     5e0:	67 5f       	subi	r22, 0xF7	; 247
     5e2:	7f 4f       	sbci	r23, 0xFF	; 255
     5e4:	ce 01       	movw	r24, r28
     5e6:	45 96       	adiw	r24, 0x15	; 21
     5e8:	3d d2       	rcall	.+1146   	; 0xa64 <__unpack_f>
     5ea:	be 01       	movw	r22, r28
     5ec:	6f 5f       	subi	r22, 0xFF	; 255
     5ee:	7f 4f       	sbci	r23, 0xFF	; 255
     5f0:	ce 01       	movw	r24, r28
     5f2:	41 96       	adiw	r24, 0x11	; 17
     5f4:	37 d2       	rcall	.+1134   	; 0xa64 <__unpack_f>
     5f6:	99 85       	ldd	r25, Y+9	; 0x09
     5f8:	92 30       	cpi	r25, 0x02	; 2
     5fa:	08 f4       	brcc	.+2      	; 0x5fe <__divsf3+0x3a>
     5fc:	75 c0       	rjmp	.+234    	; 0x6e8 <__divsf3+0x124>
     5fe:	89 81       	ldd	r24, Y+1	; 0x01
     600:	82 30       	cpi	r24, 0x02	; 2
     602:	08 f4       	brcc	.+2      	; 0x606 <__divsf3+0x42>
     604:	74 c0       	rjmp	.+232    	; 0x6ee <__divsf3+0x12a>
     606:	2a 85       	ldd	r18, Y+10	; 0x0a
     608:	3a 81       	ldd	r19, Y+2	; 0x02
     60a:	23 27       	eor	r18, r19
     60c:	2a 87       	std	Y+10, r18	; 0x0a
     60e:	94 30       	cpi	r25, 0x04	; 4
     610:	11 f0       	breq	.+4      	; 0x616 <__divsf3+0x52>
     612:	92 30       	cpi	r25, 0x02	; 2
     614:	19 f4       	brne	.+6      	; 0x61c <__divsf3+0x58>
     616:	98 13       	cpse	r25, r24
     618:	67 c0       	rjmp	.+206    	; 0x6e8 <__divsf3+0x124>
     61a:	6c c0       	rjmp	.+216    	; 0x6f4 <__divsf3+0x130>
     61c:	84 30       	cpi	r24, 0x04	; 4
     61e:	39 f4       	brne	.+14     	; 0x62e <__divsf3+0x6a>
     620:	1d 86       	std	Y+13, r1	; 0x0d
     622:	1e 86       	std	Y+14, r1	; 0x0e
     624:	1f 86       	std	Y+15, r1	; 0x0f
     626:	18 8a       	std	Y+16, r1	; 0x10
     628:	1c 86       	std	Y+12, r1	; 0x0c
     62a:	1b 86       	std	Y+11, r1	; 0x0b
     62c:	04 c0       	rjmp	.+8      	; 0x636 <__divsf3+0x72>
     62e:	82 30       	cpi	r24, 0x02	; 2
     630:	29 f4       	brne	.+10     	; 0x63c <__divsf3+0x78>
     632:	84 e0       	ldi	r24, 0x04	; 4
     634:	89 87       	std	Y+9, r24	; 0x09
     636:	ce 01       	movw	r24, r28
     638:	09 96       	adiw	r24, 0x09	; 9
     63a:	5e c0       	rjmp	.+188    	; 0x6f8 <__divsf3+0x134>
     63c:	8b 85       	ldd	r24, Y+11	; 0x0b
     63e:	9c 85       	ldd	r25, Y+12	; 0x0c
     640:	2b 81       	ldd	r18, Y+3	; 0x03
     642:	3c 81       	ldd	r19, Y+4	; 0x04
     644:	82 1b       	sub	r24, r18
     646:	93 0b       	sbc	r25, r19
     648:	9c 87       	std	Y+12, r25	; 0x0c
     64a:	8b 87       	std	Y+11, r24	; 0x0b
     64c:	4d 85       	ldd	r20, Y+13	; 0x0d
     64e:	5e 85       	ldd	r21, Y+14	; 0x0e
     650:	6f 85       	ldd	r22, Y+15	; 0x0f
     652:	78 89       	ldd	r23, Y+16	; 0x10
     654:	cd 80       	ldd	r12, Y+5	; 0x05
     656:	de 80       	ldd	r13, Y+6	; 0x06
     658:	ef 80       	ldd	r14, Y+7	; 0x07
     65a:	f8 84       	ldd	r15, Y+8	; 0x08
     65c:	4c 15       	cp	r20, r12
     65e:	5d 05       	cpc	r21, r13
     660:	6e 05       	cpc	r22, r14
     662:	7f 05       	cpc	r23, r15
     664:	38 f4       	brcc	.+14     	; 0x674 <__divsf3+0xb0>
     666:	44 0f       	add	r20, r20
     668:	55 1f       	adc	r21, r21
     66a:	66 1f       	adc	r22, r22
     66c:	77 1f       	adc	r23, r23
     66e:	01 97       	sbiw	r24, 0x01	; 1
     670:	9c 87       	std	Y+12, r25	; 0x0c
     672:	8b 87       	std	Y+11, r24	; 0x0b
     674:	ef e1       	ldi	r30, 0x1F	; 31
     676:	f0 e0       	ldi	r31, 0x00	; 0
     678:	00 e0       	ldi	r16, 0x00	; 0
     67a:	10 e0       	ldi	r17, 0x00	; 0
     67c:	20 e0       	ldi	r18, 0x00	; 0
     67e:	30 e4       	ldi	r19, 0x40	; 64
     680:	80 e0       	ldi	r24, 0x00	; 0
     682:	90 e0       	ldi	r25, 0x00	; 0
     684:	dc 01       	movw	r26, r24
     686:	4c 15       	cp	r20, r12
     688:	5d 05       	cpc	r21, r13
     68a:	6e 05       	cpc	r22, r14
     68c:	7f 05       	cpc	r23, r15
     68e:	40 f0       	brcs	.+16     	; 0x6a0 <__divsf3+0xdc>
     690:	80 2b       	or	r24, r16
     692:	91 2b       	or	r25, r17
     694:	a2 2b       	or	r26, r18
     696:	b3 2b       	or	r27, r19
     698:	4c 19       	sub	r20, r12
     69a:	5d 09       	sbc	r21, r13
     69c:	6e 09       	sbc	r22, r14
     69e:	7f 09       	sbc	r23, r15
     6a0:	36 95       	lsr	r19
     6a2:	27 95       	ror	r18
     6a4:	17 95       	ror	r17
     6a6:	07 95       	ror	r16
     6a8:	44 0f       	add	r20, r20
     6aa:	55 1f       	adc	r21, r21
     6ac:	66 1f       	adc	r22, r22
     6ae:	77 1f       	adc	r23, r23
     6b0:	31 97       	sbiw	r30, 0x01	; 1
     6b2:	49 f7       	brne	.-46     	; 0x686 <__divsf3+0xc2>
     6b4:	8c 01       	movw	r16, r24
     6b6:	9d 01       	movw	r18, r26
     6b8:	0f 77       	andi	r16, 0x7F	; 127
     6ba:	11 27       	eor	r17, r17
     6bc:	22 27       	eor	r18, r18
     6be:	33 27       	eor	r19, r19
     6c0:	00 34       	cpi	r16, 0x40	; 64
     6c2:	11 05       	cpc	r17, r1
     6c4:	21 05       	cpc	r18, r1
     6c6:	31 05       	cpc	r19, r1
     6c8:	59 f4       	brne	.+22     	; 0x6e0 <__divsf3+0x11c>
     6ca:	87 fd       	sbrc	r24, 7
     6cc:	09 c0       	rjmp	.+18     	; 0x6e0 <__divsf3+0x11c>
     6ce:	45 2b       	or	r20, r21
     6d0:	46 2b       	or	r20, r22
     6d2:	47 2b       	or	r20, r23
     6d4:	29 f0       	breq	.+10     	; 0x6e0 <__divsf3+0x11c>
     6d6:	80 5c       	subi	r24, 0xC0	; 192
     6d8:	9f 4f       	sbci	r25, 0xFF	; 255
     6da:	af 4f       	sbci	r26, 0xFF	; 255
     6dc:	bf 4f       	sbci	r27, 0xFF	; 255
     6de:	80 78       	andi	r24, 0x80	; 128
     6e0:	8d 87       	std	Y+13, r24	; 0x0d
     6e2:	9e 87       	std	Y+14, r25	; 0x0e
     6e4:	af 87       	std	Y+15, r26	; 0x0f
     6e6:	b8 8b       	std	Y+16, r27	; 0x10
     6e8:	ce 01       	movw	r24, r28
     6ea:	09 96       	adiw	r24, 0x09	; 9
     6ec:	05 c0       	rjmp	.+10     	; 0x6f8 <__divsf3+0x134>
     6ee:	ce 01       	movw	r24, r28
     6f0:	01 96       	adiw	r24, 0x01	; 1
     6f2:	02 c0       	rjmp	.+4      	; 0x6f8 <__divsf3+0x134>
     6f4:	82 e6       	ldi	r24, 0x62	; 98
     6f6:	90 e0       	ldi	r25, 0x00	; 0
     6f8:	eb d0       	rcall	.+470    	; 0x8d0 <__pack_f>
     6fa:	68 96       	adiw	r28, 0x18	; 24
     6fc:	e8 e0       	ldi	r30, 0x08	; 8
     6fe:	c2 c5       	rjmp	.+2948   	; 0x1284 <__epilogue_restores__+0x14>

00000700 <__gesf2>:
     700:	a8 e1       	ldi	r26, 0x18	; 24
     702:	b0 e0       	ldi	r27, 0x00	; 0
     704:	e5 e8       	ldi	r30, 0x85	; 133
     706:	f3 e0       	ldi	r31, 0x03	; 3
     708:	a7 c5       	rjmp	.+2894   	; 0x1258 <__prologue_saves__+0x20>
     70a:	6d 8b       	std	Y+21, r22	; 0x15
     70c:	7e 8b       	std	Y+22, r23	; 0x16
     70e:	8f 8b       	std	Y+23, r24	; 0x17
     710:	98 8f       	std	Y+24, r25	; 0x18
     712:	29 8b       	std	Y+17, r18	; 0x11
     714:	3a 8b       	std	Y+18, r19	; 0x12
     716:	4b 8b       	std	Y+19, r20	; 0x13
     718:	5c 8b       	std	Y+20, r21	; 0x14
     71a:	be 01       	movw	r22, r28
     71c:	67 5f       	subi	r22, 0xF7	; 247
     71e:	7f 4f       	sbci	r23, 0xFF	; 255
     720:	ce 01       	movw	r24, r28
     722:	45 96       	adiw	r24, 0x15	; 21
     724:	9f d1       	rcall	.+830    	; 0xa64 <__unpack_f>
     726:	be 01       	movw	r22, r28
     728:	6f 5f       	subi	r22, 0xFF	; 255
     72a:	7f 4f       	sbci	r23, 0xFF	; 255
     72c:	ce 01       	movw	r24, r28
     72e:	41 96       	adiw	r24, 0x11	; 17
     730:	99 d1       	rcall	.+818    	; 0xa64 <__unpack_f>
     732:	89 85       	ldd	r24, Y+9	; 0x09
     734:	82 30       	cpi	r24, 0x02	; 2
     736:	50 f0       	brcs	.+20     	; 0x74c <__gesf2+0x4c>
     738:	89 81       	ldd	r24, Y+1	; 0x01
     73a:	82 30       	cpi	r24, 0x02	; 2
     73c:	38 f0       	brcs	.+14     	; 0x74c <__gesf2+0x4c>
     73e:	be 01       	movw	r22, r28
     740:	6f 5f       	subi	r22, 0xFF	; 255
     742:	7f 4f       	sbci	r23, 0xFF	; 255
     744:	ce 01       	movw	r24, r28
     746:	09 96       	adiw	r24, 0x09	; 9
     748:	fc d1       	rcall	.+1016   	; 0xb42 <__fpcmp_parts_f>
     74a:	01 c0       	rjmp	.+2      	; 0x74e <__gesf2+0x4e>
     74c:	8f ef       	ldi	r24, 0xFF	; 255
     74e:	68 96       	adiw	r28, 0x18	; 24
     750:	e2 e0       	ldi	r30, 0x02	; 2
     752:	9e c5       	rjmp	.+2876   	; 0x1290 <__epilogue_restores__+0x20>

00000754 <__fixsfsi>:
     754:	ac e0       	ldi	r26, 0x0C	; 12
     756:	b0 e0       	ldi	r27, 0x00	; 0
     758:	ef ea       	ldi	r30, 0xAF	; 175
     75a:	f3 e0       	ldi	r31, 0x03	; 3
     75c:	7b c5       	rjmp	.+2806   	; 0x1254 <__prologue_saves__+0x1c>
     75e:	69 87       	std	Y+9, r22	; 0x09
     760:	7a 87       	std	Y+10, r23	; 0x0a
     762:	8b 87       	std	Y+11, r24	; 0x0b
     764:	9c 87       	std	Y+12, r25	; 0x0c
     766:	be 01       	movw	r22, r28
     768:	6f 5f       	subi	r22, 0xFF	; 255
     76a:	7f 4f       	sbci	r23, 0xFF	; 255
     76c:	ce 01       	movw	r24, r28
     76e:	09 96       	adiw	r24, 0x09	; 9
     770:	79 d1       	rcall	.+754    	; 0xa64 <__unpack_f>
     772:	89 81       	ldd	r24, Y+1	; 0x01
     774:	82 30       	cpi	r24, 0x02	; 2
     776:	91 f1       	breq	.+100    	; 0x7dc <__fixsfsi+0x88>
     778:	82 30       	cpi	r24, 0x02	; 2
     77a:	80 f1       	brcs	.+96     	; 0x7dc <__fixsfsi+0x88>
     77c:	84 30       	cpi	r24, 0x04	; 4
     77e:	41 f4       	brne	.+16     	; 0x790 <__fixsfsi+0x3c>
     780:	8a 81       	ldd	r24, Y+2	; 0x02
     782:	88 23       	and	r24, r24
     784:	31 f1       	breq	.+76     	; 0x7d2 <__fixsfsi+0x7e>
     786:	00 e0       	ldi	r16, 0x00	; 0
     788:	10 e0       	ldi	r17, 0x00	; 0
     78a:	20 e0       	ldi	r18, 0x00	; 0
     78c:	30 e8       	ldi	r19, 0x80	; 128
     78e:	29 c0       	rjmp	.+82     	; 0x7e2 <__fixsfsi+0x8e>
     790:	2b 81       	ldd	r18, Y+3	; 0x03
     792:	3c 81       	ldd	r19, Y+4	; 0x04
     794:	37 fd       	sbrc	r19, 7
     796:	22 c0       	rjmp	.+68     	; 0x7dc <__fixsfsi+0x88>
     798:	2f 31       	cpi	r18, 0x1F	; 31
     79a:	31 05       	cpc	r19, r1
     79c:	8c f7       	brge	.-30     	; 0x780 <__fixsfsi+0x2c>
     79e:	8e e1       	ldi	r24, 0x1E	; 30
     7a0:	90 e0       	ldi	r25, 0x00	; 0
     7a2:	82 1b       	sub	r24, r18
     7a4:	93 0b       	sbc	r25, r19
     7a6:	0d 81       	ldd	r16, Y+5	; 0x05
     7a8:	1e 81       	ldd	r17, Y+6	; 0x06
     7aa:	2f 81       	ldd	r18, Y+7	; 0x07
     7ac:	38 85       	ldd	r19, Y+8	; 0x08
     7ae:	04 c0       	rjmp	.+8      	; 0x7b8 <__fixsfsi+0x64>
     7b0:	36 95       	lsr	r19
     7b2:	27 95       	ror	r18
     7b4:	17 95       	ror	r17
     7b6:	07 95       	ror	r16
     7b8:	8a 95       	dec	r24
     7ba:	d2 f7       	brpl	.-12     	; 0x7b0 <__fixsfsi+0x5c>
     7bc:	8a 81       	ldd	r24, Y+2	; 0x02
     7be:	88 23       	and	r24, r24
     7c0:	81 f0       	breq	.+32     	; 0x7e2 <__fixsfsi+0x8e>
     7c2:	30 95       	com	r19
     7c4:	20 95       	com	r18
     7c6:	10 95       	com	r17
     7c8:	01 95       	neg	r16
     7ca:	1f 4f       	sbci	r17, 0xFF	; 255
     7cc:	2f 4f       	sbci	r18, 0xFF	; 255
     7ce:	3f 4f       	sbci	r19, 0xFF	; 255
     7d0:	08 c0       	rjmp	.+16     	; 0x7e2 <__fixsfsi+0x8e>
     7d2:	0f ef       	ldi	r16, 0xFF	; 255
     7d4:	1f ef       	ldi	r17, 0xFF	; 255
     7d6:	2f ef       	ldi	r18, 0xFF	; 255
     7d8:	3f e7       	ldi	r19, 0x7F	; 127
     7da:	03 c0       	rjmp	.+6      	; 0x7e2 <__fixsfsi+0x8e>
     7dc:	00 e0       	ldi	r16, 0x00	; 0
     7de:	10 e0       	ldi	r17, 0x00	; 0
     7e0:	98 01       	movw	r18, r16
     7e2:	b8 01       	movw	r22, r16
     7e4:	c9 01       	movw	r24, r18
     7e6:	2c 96       	adiw	r28, 0x0c	; 12
     7e8:	e4 e0       	ldi	r30, 0x04	; 4
     7ea:	50 c5       	rjmp	.+2720   	; 0x128c <__epilogue_restores__+0x1c>

000007ec <__floatunsisf>:
     7ec:	a8 e0       	ldi	r26, 0x08	; 8
     7ee:	b0 e0       	ldi	r27, 0x00	; 0
     7f0:	eb ef       	ldi	r30, 0xFB	; 251
     7f2:	f3 e0       	ldi	r31, 0x03	; 3
     7f4:	2b c5       	rjmp	.+2646   	; 0x124c <__prologue_saves__+0x14>
     7f6:	8b 01       	movw	r16, r22
     7f8:	9c 01       	movw	r18, r24
     7fa:	1a 82       	std	Y+2, r1	; 0x02
     7fc:	61 15       	cp	r22, r1
     7fe:	71 05       	cpc	r23, r1
     800:	81 05       	cpc	r24, r1
     802:	91 05       	cpc	r25, r1
     804:	19 f4       	brne	.+6      	; 0x80c <__floatunsisf+0x20>
     806:	82 e0       	ldi	r24, 0x02	; 2
     808:	89 83       	std	Y+1, r24	; 0x01
     80a:	5c c0       	rjmp	.+184    	; 0x8c4 <__floatunsisf+0xd8>
     80c:	83 e0       	ldi	r24, 0x03	; 3
     80e:	89 83       	std	Y+1, r24	; 0x01
     810:	4e e1       	ldi	r20, 0x1E	; 30
     812:	50 e0       	ldi	r21, 0x00	; 0
     814:	5c 83       	std	Y+4, r21	; 0x04
     816:	4b 83       	std	Y+3, r20	; 0x03
     818:	c9 01       	movw	r24, r18
     81a:	b8 01       	movw	r22, r16
     81c:	f4 d4       	rcall	.+2536   	; 0x1206 <__clzsi2>
     81e:	01 97       	sbiw	r24, 0x01	; 1
     820:	97 ff       	sbrs	r25, 7
     822:	39 c0       	rjmp	.+114    	; 0x896 <__floatunsisf+0xaa>
     824:	ee 27       	eor	r30, r30
     826:	ff 27       	eor	r31, r31
     828:	e8 1b       	sub	r30, r24
     82a:	f9 0b       	sbc	r31, r25
     82c:	41 e0       	ldi	r20, 0x01	; 1
     82e:	50 e0       	ldi	r21, 0x00	; 0
     830:	60 e0       	ldi	r22, 0x00	; 0
     832:	70 e0       	ldi	r23, 0x00	; 0
     834:	0e 2e       	mov	r0, r30
     836:	04 c0       	rjmp	.+8      	; 0x840 <__floatunsisf+0x54>
     838:	44 0f       	add	r20, r20
     83a:	55 1f       	adc	r21, r21
     83c:	66 1f       	adc	r22, r22
     83e:	77 1f       	adc	r23, r23
     840:	0a 94       	dec	r0
     842:	d2 f7       	brpl	.-12     	; 0x838 <__floatunsisf+0x4c>
     844:	41 50       	subi	r20, 0x01	; 1
     846:	51 09       	sbc	r21, r1
     848:	61 09       	sbc	r22, r1
     84a:	71 09       	sbc	r23, r1
     84c:	40 23       	and	r20, r16
     84e:	51 23       	and	r21, r17
     850:	62 23       	and	r22, r18
     852:	73 23       	and	r23, r19
     854:	c1 2c       	mov	r12, r1
     856:	d1 2c       	mov	r13, r1
     858:	76 01       	movw	r14, r12
     85a:	c3 94       	inc	r12
     85c:	45 2b       	or	r20, r21
     85e:	46 2b       	or	r20, r22
     860:	47 2b       	or	r20, r23
     862:	19 f4       	brne	.+6      	; 0x86a <__floatunsisf+0x7e>
     864:	c1 2c       	mov	r12, r1
     866:	d1 2c       	mov	r13, r1
     868:	76 01       	movw	r14, r12
     86a:	04 c0       	rjmp	.+8      	; 0x874 <__floatunsisf+0x88>
     86c:	36 95       	lsr	r19
     86e:	27 95       	ror	r18
     870:	17 95       	ror	r17
     872:	07 95       	ror	r16
     874:	ea 95       	dec	r30
     876:	d2 f7       	brpl	.-12     	; 0x86c <__floatunsisf+0x80>
     878:	0c 29       	or	r16, r12
     87a:	1d 29       	or	r17, r13
     87c:	2e 29       	or	r18, r14
     87e:	3f 29       	or	r19, r15
     880:	0d 83       	std	Y+5, r16	; 0x05
     882:	1e 83       	std	Y+6, r17	; 0x06
     884:	2f 83       	std	Y+7, r18	; 0x07
     886:	38 87       	std	Y+8, r19	; 0x08
     888:	2e e1       	ldi	r18, 0x1E	; 30
     88a:	30 e0       	ldi	r19, 0x00	; 0
     88c:	28 1b       	sub	r18, r24
     88e:	39 0b       	sbc	r19, r25
     890:	3c 83       	std	Y+4, r19	; 0x04
     892:	2b 83       	std	Y+3, r18	; 0x03
     894:	17 c0       	rjmp	.+46     	; 0x8c4 <__floatunsisf+0xd8>
     896:	00 97       	sbiw	r24, 0x00	; 0
     898:	29 f4       	brne	.+10     	; 0x8a4 <__floatunsisf+0xb8>
     89a:	0d 83       	std	Y+5, r16	; 0x05
     89c:	1e 83       	std	Y+6, r17	; 0x06
     89e:	2f 83       	std	Y+7, r18	; 0x07
     8a0:	38 87       	std	Y+8, r19	; 0x08
     8a2:	10 c0       	rjmp	.+32     	; 0x8c4 <__floatunsisf+0xd8>
     8a4:	08 2e       	mov	r0, r24
     8a6:	04 c0       	rjmp	.+8      	; 0x8b0 <__floatunsisf+0xc4>
     8a8:	00 0f       	add	r16, r16
     8aa:	11 1f       	adc	r17, r17
     8ac:	22 1f       	adc	r18, r18
     8ae:	33 1f       	adc	r19, r19
     8b0:	0a 94       	dec	r0
     8b2:	d2 f7       	brpl	.-12     	; 0x8a8 <__floatunsisf+0xbc>
     8b4:	0d 83       	std	Y+5, r16	; 0x05
     8b6:	1e 83       	std	Y+6, r17	; 0x06
     8b8:	2f 83       	std	Y+7, r18	; 0x07
     8ba:	38 87       	std	Y+8, r19	; 0x08
     8bc:	48 1b       	sub	r20, r24
     8be:	59 0b       	sbc	r21, r25
     8c0:	5c 83       	std	Y+4, r21	; 0x04
     8c2:	4b 83       	std	Y+3, r20	; 0x03
     8c4:	ce 01       	movw	r24, r28
     8c6:	01 96       	adiw	r24, 0x01	; 1
     8c8:	03 d0       	rcall	.+6      	; 0x8d0 <__pack_f>
     8ca:	28 96       	adiw	r28, 0x08	; 8
     8cc:	e8 e0       	ldi	r30, 0x08	; 8
     8ce:	da c4       	rjmp	.+2484   	; 0x1284 <__epilogue_restores__+0x14>

000008d0 <__pack_f>:
     8d0:	0f 93       	push	r16
     8d2:	1f 93       	push	r17
     8d4:	cf 93       	push	r28
     8d6:	df 93       	push	r29
     8d8:	dc 01       	movw	r26, r24
     8da:	14 96       	adiw	r26, 0x04	; 4
     8dc:	4d 91       	ld	r20, X+
     8de:	5d 91       	ld	r21, X+
     8e0:	6d 91       	ld	r22, X+
     8e2:	7c 91       	ld	r23, X
     8e4:	17 97       	sbiw	r26, 0x07	; 7
     8e6:	11 96       	adiw	r26, 0x01	; 1
     8e8:	ec 91       	ld	r30, X
     8ea:	11 97       	sbiw	r26, 0x01	; 1
     8ec:	8c 91       	ld	r24, X
     8ee:	82 30       	cpi	r24, 0x02	; 2
     8f0:	20 f4       	brcc	.+8      	; 0x8fa <__pack_f+0x2a>
     8f2:	60 61       	ori	r22, 0x10	; 16
     8f4:	8f ef       	ldi	r24, 0xFF	; 255
     8f6:	90 e0       	ldi	r25, 0x00	; 0
     8f8:	a6 c0       	rjmp	.+332    	; 0xa46 <__pack_f+0x176>
     8fa:	84 30       	cpi	r24, 0x04	; 4
     8fc:	09 f4       	brne	.+2      	; 0x900 <__pack_f+0x30>
     8fe:	9e c0       	rjmp	.+316    	; 0xa3c <__pack_f+0x16c>
     900:	82 30       	cpi	r24, 0x02	; 2
     902:	09 f4       	brne	.+2      	; 0x906 <__pack_f+0x36>
     904:	95 c0       	rjmp	.+298    	; 0xa30 <__pack_f+0x160>
     906:	41 15       	cp	r20, r1
     908:	51 05       	cpc	r21, r1
     90a:	61 05       	cpc	r22, r1
     90c:	71 05       	cpc	r23, r1
     90e:	09 f4       	brne	.+2      	; 0x912 <__pack_f+0x42>
     910:	92 c0       	rjmp	.+292    	; 0xa36 <__pack_f+0x166>
     912:	12 96       	adiw	r26, 0x02	; 2
     914:	2d 91       	ld	r18, X+
     916:	3c 91       	ld	r19, X
     918:	13 97       	sbiw	r26, 0x03	; 3
     91a:	22 38       	cpi	r18, 0x82	; 130
     91c:	8f ef       	ldi	r24, 0xFF	; 255
     91e:	38 07       	cpc	r19, r24
     920:	0c f0       	brlt	.+2      	; 0x924 <__pack_f+0x54>
     922:	58 c0       	rjmp	.+176    	; 0x9d4 <__pack_f+0x104>
     924:	c2 e8       	ldi	r28, 0x82	; 130
     926:	df ef       	ldi	r29, 0xFF	; 255
     928:	c2 1b       	sub	r28, r18
     92a:	d3 0b       	sbc	r29, r19
     92c:	ca 31       	cpi	r28, 0x1A	; 26
     92e:	d1 05       	cpc	r29, r1
     930:	6c f5       	brge	.+90     	; 0x98c <__pack_f+0xbc>
     932:	8a 01       	movw	r16, r20
     934:	9b 01       	movw	r18, r22
     936:	0c 2e       	mov	r0, r28
     938:	04 c0       	rjmp	.+8      	; 0x942 <__pack_f+0x72>
     93a:	36 95       	lsr	r19
     93c:	27 95       	ror	r18
     93e:	17 95       	ror	r17
     940:	07 95       	ror	r16
     942:	0a 94       	dec	r0
     944:	d2 f7       	brpl	.-12     	; 0x93a <__pack_f+0x6a>
     946:	81 e0       	ldi	r24, 0x01	; 1
     948:	90 e0       	ldi	r25, 0x00	; 0
     94a:	a0 e0       	ldi	r26, 0x00	; 0
     94c:	b0 e0       	ldi	r27, 0x00	; 0
     94e:	0c 2e       	mov	r0, r28
     950:	04 c0       	rjmp	.+8      	; 0x95a <__pack_f+0x8a>
     952:	88 0f       	add	r24, r24
     954:	99 1f       	adc	r25, r25
     956:	aa 1f       	adc	r26, r26
     958:	bb 1f       	adc	r27, r27
     95a:	0a 94       	dec	r0
     95c:	d2 f7       	brpl	.-12     	; 0x952 <__pack_f+0x82>
     95e:	01 97       	sbiw	r24, 0x01	; 1
     960:	a1 09       	sbc	r26, r1
     962:	b1 09       	sbc	r27, r1
     964:	84 23       	and	r24, r20
     966:	95 23       	and	r25, r21
     968:	a6 23       	and	r26, r22
     96a:	b7 23       	and	r27, r23
     96c:	41 e0       	ldi	r20, 0x01	; 1
     96e:	50 e0       	ldi	r21, 0x00	; 0
     970:	60 e0       	ldi	r22, 0x00	; 0
     972:	70 e0       	ldi	r23, 0x00	; 0
     974:	89 2b       	or	r24, r25
     976:	8a 2b       	or	r24, r26
     978:	8b 2b       	or	r24, r27
     97a:	19 f4       	brne	.+6      	; 0x982 <__pack_f+0xb2>
     97c:	40 e0       	ldi	r20, 0x00	; 0
     97e:	50 e0       	ldi	r21, 0x00	; 0
     980:	ba 01       	movw	r22, r20
     982:	40 2b       	or	r20, r16
     984:	51 2b       	or	r21, r17
     986:	62 2b       	or	r22, r18
     988:	73 2b       	or	r23, r19
     98a:	03 c0       	rjmp	.+6      	; 0x992 <__pack_f+0xc2>
     98c:	40 e0       	ldi	r20, 0x00	; 0
     98e:	50 e0       	ldi	r21, 0x00	; 0
     990:	ba 01       	movw	r22, r20
     992:	db 01       	movw	r26, r22
     994:	ca 01       	movw	r24, r20
     996:	8f 77       	andi	r24, 0x7F	; 127
     998:	99 27       	eor	r25, r25
     99a:	aa 27       	eor	r26, r26
     99c:	bb 27       	eor	r27, r27
     99e:	80 34       	cpi	r24, 0x40	; 64
     9a0:	91 05       	cpc	r25, r1
     9a2:	a1 05       	cpc	r26, r1
     9a4:	b1 05       	cpc	r27, r1
     9a6:	39 f4       	brne	.+14     	; 0x9b6 <__pack_f+0xe6>
     9a8:	47 ff       	sbrs	r20, 7
     9aa:	09 c0       	rjmp	.+18     	; 0x9be <__pack_f+0xee>
     9ac:	40 5c       	subi	r20, 0xC0	; 192
     9ae:	5f 4f       	sbci	r21, 0xFF	; 255
     9b0:	6f 4f       	sbci	r22, 0xFF	; 255
     9b2:	7f 4f       	sbci	r23, 0xFF	; 255
     9b4:	04 c0       	rjmp	.+8      	; 0x9be <__pack_f+0xee>
     9b6:	41 5c       	subi	r20, 0xC1	; 193
     9b8:	5f 4f       	sbci	r21, 0xFF	; 255
     9ba:	6f 4f       	sbci	r22, 0xFF	; 255
     9bc:	7f 4f       	sbci	r23, 0xFF	; 255
     9be:	81 e0       	ldi	r24, 0x01	; 1
     9c0:	90 e0       	ldi	r25, 0x00	; 0
     9c2:	41 15       	cp	r20, r1
     9c4:	51 05       	cpc	r21, r1
     9c6:	61 05       	cpc	r22, r1
     9c8:	20 e4       	ldi	r18, 0x40	; 64
     9ca:	72 07       	cpc	r23, r18
     9cc:	48 f5       	brcc	.+82     	; 0xa20 <__pack_f+0x150>
     9ce:	80 e0       	ldi	r24, 0x00	; 0
     9d0:	90 e0       	ldi	r25, 0x00	; 0
     9d2:	26 c0       	rjmp	.+76     	; 0xa20 <__pack_f+0x150>
     9d4:	20 38       	cpi	r18, 0x80	; 128
     9d6:	31 05       	cpc	r19, r1
     9d8:	8c f5       	brge	.+98     	; 0xa3c <__pack_f+0x16c>
     9da:	db 01       	movw	r26, r22
     9dc:	ca 01       	movw	r24, r20
     9de:	8f 77       	andi	r24, 0x7F	; 127
     9e0:	99 27       	eor	r25, r25
     9e2:	aa 27       	eor	r26, r26
     9e4:	bb 27       	eor	r27, r27
     9e6:	80 34       	cpi	r24, 0x40	; 64
     9e8:	91 05       	cpc	r25, r1
     9ea:	a1 05       	cpc	r26, r1
     9ec:	b1 05       	cpc	r27, r1
     9ee:	39 f4       	brne	.+14     	; 0x9fe <__pack_f+0x12e>
     9f0:	47 ff       	sbrs	r20, 7
     9f2:	09 c0       	rjmp	.+18     	; 0xa06 <__pack_f+0x136>
     9f4:	40 5c       	subi	r20, 0xC0	; 192
     9f6:	5f 4f       	sbci	r21, 0xFF	; 255
     9f8:	6f 4f       	sbci	r22, 0xFF	; 255
     9fa:	7f 4f       	sbci	r23, 0xFF	; 255
     9fc:	04 c0       	rjmp	.+8      	; 0xa06 <__pack_f+0x136>
     9fe:	41 5c       	subi	r20, 0xC1	; 193
     a00:	5f 4f       	sbci	r21, 0xFF	; 255
     a02:	6f 4f       	sbci	r22, 0xFF	; 255
     a04:	7f 4f       	sbci	r23, 0xFF	; 255
     a06:	77 fd       	sbrc	r23, 7
     a08:	04 c0       	rjmp	.+8      	; 0xa12 <__pack_f+0x142>
     a0a:	c9 01       	movw	r24, r18
     a0c:	81 58       	subi	r24, 0x81	; 129
     a0e:	9f 4f       	sbci	r25, 0xFF	; 255
     a10:	07 c0       	rjmp	.+14     	; 0xa20 <__pack_f+0x150>
     a12:	76 95       	lsr	r23
     a14:	67 95       	ror	r22
     a16:	57 95       	ror	r21
     a18:	47 95       	ror	r20
     a1a:	c9 01       	movw	r24, r18
     a1c:	80 58       	subi	r24, 0x80	; 128
     a1e:	9f 4f       	sbci	r25, 0xFF	; 255
     a20:	97 e0       	ldi	r25, 0x07	; 7
     a22:	76 95       	lsr	r23
     a24:	67 95       	ror	r22
     a26:	57 95       	ror	r21
     a28:	47 95       	ror	r20
     a2a:	9a 95       	dec	r25
     a2c:	d1 f7       	brne	.-12     	; 0xa22 <__pack_f+0x152>
     a2e:	0b c0       	rjmp	.+22     	; 0xa46 <__pack_f+0x176>
     a30:	80 e0       	ldi	r24, 0x00	; 0
     a32:	90 e0       	ldi	r25, 0x00	; 0
     a34:	05 c0       	rjmp	.+10     	; 0xa40 <__pack_f+0x170>
     a36:	80 e0       	ldi	r24, 0x00	; 0
     a38:	90 e0       	ldi	r25, 0x00	; 0
     a3a:	05 c0       	rjmp	.+10     	; 0xa46 <__pack_f+0x176>
     a3c:	8f ef       	ldi	r24, 0xFF	; 255
     a3e:	90 e0       	ldi	r25, 0x00	; 0
     a40:	40 e0       	ldi	r20, 0x00	; 0
     a42:	50 e0       	ldi	r21, 0x00	; 0
     a44:	ba 01       	movw	r22, r20
     a46:	98 2f       	mov	r25, r24
     a48:	96 95       	lsr	r25
     a4a:	e0 fb       	bst	r30, 0
     a4c:	97 f9       	bld	r25, 7
     a4e:	36 2f       	mov	r19, r22
     a50:	80 fb       	bst	r24, 0
     a52:	37 f9       	bld	r19, 7
     a54:	64 2f       	mov	r22, r20
     a56:	75 2f       	mov	r23, r21
     a58:	83 2f       	mov	r24, r19
     a5a:	df 91       	pop	r29
     a5c:	cf 91       	pop	r28
     a5e:	1f 91       	pop	r17
     a60:	0f 91       	pop	r16
     a62:	08 95       	ret

00000a64 <__unpack_f>:
     a64:	cf 92       	push	r12
     a66:	df 92       	push	r13
     a68:	ef 92       	push	r14
     a6a:	dc 01       	movw	r26, r24
     a6c:	fb 01       	movw	r30, r22
     a6e:	cc 90       	ld	r12, X
     a70:	11 96       	adiw	r26, 0x01	; 1
     a72:	dc 90       	ld	r13, X
     a74:	11 97       	sbiw	r26, 0x01	; 1
     a76:	12 96       	adiw	r26, 0x02	; 2
     a78:	8c 91       	ld	r24, X
     a7a:	12 97       	sbiw	r26, 0x02	; 2
     a7c:	3f e7       	ldi	r19, 0x7F	; 127
     a7e:	e3 2e       	mov	r14, r19
     a80:	e8 22       	and	r14, r24
     a82:	6e 2d       	mov	r22, r14
     a84:	a6 01       	movw	r20, r12
     a86:	70 e0       	ldi	r23, 0x00	; 0
     a88:	98 2f       	mov	r25, r24
     a8a:	99 1f       	adc	r25, r25
     a8c:	99 27       	eor	r25, r25
     a8e:	99 1f       	adc	r25, r25
     a90:	13 96       	adiw	r26, 0x03	; 3
     a92:	2c 91       	ld	r18, X
     a94:	82 2f       	mov	r24, r18
     a96:	88 0f       	add	r24, r24
     a98:	89 2b       	or	r24, r25
     a9a:	90 e0       	ldi	r25, 0x00	; 0
     a9c:	27 fb       	bst	r18, 7
     a9e:	22 27       	eor	r18, r18
     aa0:	20 f9       	bld	r18, 0
     aa2:	21 83       	std	Z+1, r18	; 0x01
     aa4:	00 97       	sbiw	r24, 0x00	; 0
     aa6:	29 f5       	brne	.+74     	; 0xaf2 <__unpack_f+0x8e>
     aa8:	41 15       	cp	r20, r1
     aaa:	51 05       	cpc	r21, r1
     aac:	61 05       	cpc	r22, r1
     aae:	71 05       	cpc	r23, r1
     ab0:	11 f4       	brne	.+4      	; 0xab6 <__unpack_f+0x52>
     ab2:	82 e0       	ldi	r24, 0x02	; 2
     ab4:	27 c0       	rjmp	.+78     	; 0xb04 <__unpack_f+0xa0>
     ab6:	82 e8       	ldi	r24, 0x82	; 130
     ab8:	9f ef       	ldi	r25, 0xFF	; 255
     aba:	93 83       	std	Z+3, r25	; 0x03
     abc:	82 83       	std	Z+2, r24	; 0x02
     abe:	27 e0       	ldi	r18, 0x07	; 7
     ac0:	44 0f       	add	r20, r20
     ac2:	55 1f       	adc	r21, r21
     ac4:	66 1f       	adc	r22, r22
     ac6:	77 1f       	adc	r23, r23
     ac8:	2a 95       	dec	r18
     aca:	d1 f7       	brne	.-12     	; 0xac0 <__unpack_f+0x5c>
     acc:	83 e0       	ldi	r24, 0x03	; 3
     ace:	80 83       	st	Z, r24
     ad0:	09 c0       	rjmp	.+18     	; 0xae4 <__unpack_f+0x80>
     ad2:	44 0f       	add	r20, r20
     ad4:	55 1f       	adc	r21, r21
     ad6:	66 1f       	adc	r22, r22
     ad8:	77 1f       	adc	r23, r23
     ada:	82 81       	ldd	r24, Z+2	; 0x02
     adc:	93 81       	ldd	r25, Z+3	; 0x03
     ade:	01 97       	sbiw	r24, 0x01	; 1
     ae0:	93 83       	std	Z+3, r25	; 0x03
     ae2:	82 83       	std	Z+2, r24	; 0x02
     ae4:	41 15       	cp	r20, r1
     ae6:	51 05       	cpc	r21, r1
     ae8:	61 05       	cpc	r22, r1
     aea:	80 e4       	ldi	r24, 0x40	; 64
     aec:	78 07       	cpc	r23, r24
     aee:	88 f3       	brcs	.-30     	; 0xad2 <__unpack_f+0x6e>
     af0:	20 c0       	rjmp	.+64     	; 0xb32 <__unpack_f+0xce>
     af2:	8f 3f       	cpi	r24, 0xFF	; 255
     af4:	91 05       	cpc	r25, r1
     af6:	79 f4       	brne	.+30     	; 0xb16 <__unpack_f+0xb2>
     af8:	41 15       	cp	r20, r1
     afa:	51 05       	cpc	r21, r1
     afc:	61 05       	cpc	r22, r1
     afe:	71 05       	cpc	r23, r1
     b00:	19 f4       	brne	.+6      	; 0xb08 <__unpack_f+0xa4>
     b02:	84 e0       	ldi	r24, 0x04	; 4
     b04:	80 83       	st	Z, r24
     b06:	19 c0       	rjmp	.+50     	; 0xb3a <__unpack_f+0xd6>
     b08:	e4 fe       	sbrs	r14, 4
     b0a:	03 c0       	rjmp	.+6      	; 0xb12 <__unpack_f+0xae>
     b0c:	81 e0       	ldi	r24, 0x01	; 1
     b0e:	80 83       	st	Z, r24
     b10:	10 c0       	rjmp	.+32     	; 0xb32 <__unpack_f+0xce>
     b12:	10 82       	st	Z, r1
     b14:	0e c0       	rjmp	.+28     	; 0xb32 <__unpack_f+0xce>
     b16:	8f 57       	subi	r24, 0x7F	; 127
     b18:	91 09       	sbc	r25, r1
     b1a:	93 83       	std	Z+3, r25	; 0x03
     b1c:	82 83       	std	Z+2, r24	; 0x02
     b1e:	83 e0       	ldi	r24, 0x03	; 3
     b20:	80 83       	st	Z, r24
     b22:	87 e0       	ldi	r24, 0x07	; 7
     b24:	44 0f       	add	r20, r20
     b26:	55 1f       	adc	r21, r21
     b28:	66 1f       	adc	r22, r22
     b2a:	77 1f       	adc	r23, r23
     b2c:	8a 95       	dec	r24
     b2e:	d1 f7       	brne	.-12     	; 0xb24 <__unpack_f+0xc0>
     b30:	70 64       	ori	r23, 0x40	; 64
     b32:	44 83       	std	Z+4, r20	; 0x04
     b34:	55 83       	std	Z+5, r21	; 0x05
     b36:	66 83       	std	Z+6, r22	; 0x06
     b38:	77 83       	std	Z+7, r23	; 0x07
     b3a:	ef 90       	pop	r14
     b3c:	df 90       	pop	r13
     b3e:	cf 90       	pop	r12
     b40:	08 95       	ret

00000b42 <__fpcmp_parts_f>:
     b42:	cf 93       	push	r28
     b44:	fc 01       	movw	r30, r24
     b46:	db 01       	movw	r26, r22
     b48:	90 81       	ld	r25, Z
     b4a:	92 30       	cpi	r25, 0x02	; 2
     b4c:	08 f4       	brcc	.+2      	; 0xb50 <__fpcmp_parts_f+0xe>
     b4e:	52 c0       	rjmp	.+164    	; 0xbf4 <__fpcmp_parts_f+0xb2>
     b50:	8c 91       	ld	r24, X
     b52:	82 30       	cpi	r24, 0x02	; 2
     b54:	08 f4       	brcc	.+2      	; 0xb58 <__fpcmp_parts_f+0x16>
     b56:	4e c0       	rjmp	.+156    	; 0xbf4 <__fpcmp_parts_f+0xb2>
     b58:	94 30       	cpi	r25, 0x04	; 4
     b5a:	71 f4       	brne	.+28     	; 0xb78 <__fpcmp_parts_f+0x36>
     b5c:	84 30       	cpi	r24, 0x04	; 4
     b5e:	39 f4       	brne	.+14     	; 0xb6e <__fpcmp_parts_f+0x2c>
     b60:	11 96       	adiw	r26, 0x01	; 1
     b62:	2c 91       	ld	r18, X
     b64:	30 e0       	ldi	r19, 0x00	; 0
     b66:	81 81       	ldd	r24, Z+1	; 0x01
     b68:	28 1b       	sub	r18, r24
     b6a:	31 09       	sbc	r19, r1
     b6c:	48 c0       	rjmp	.+144    	; 0xbfe <__fpcmp_parts_f+0xbc>
     b6e:	81 81       	ldd	r24, Z+1	; 0x01
     b70:	88 23       	and	r24, r24
     b72:	09 f4       	brne	.+2      	; 0xb76 <__fpcmp_parts_f+0x34>
     b74:	3f c0       	rjmp	.+126    	; 0xbf4 <__fpcmp_parts_f+0xb2>
     b76:	3b c0       	rjmp	.+118    	; 0xbee <__fpcmp_parts_f+0xac>
     b78:	84 30       	cpi	r24, 0x04	; 4
     b7a:	29 f4       	brne	.+10     	; 0xb86 <__fpcmp_parts_f+0x44>
     b7c:	11 96       	adiw	r26, 0x01	; 1
     b7e:	8c 91       	ld	r24, X
     b80:	81 11       	cpse	r24, r1
     b82:	38 c0       	rjmp	.+112    	; 0xbf4 <__fpcmp_parts_f+0xb2>
     b84:	34 c0       	rjmp	.+104    	; 0xbee <__fpcmp_parts_f+0xac>
     b86:	92 30       	cpi	r25, 0x02	; 2
     b88:	19 f4       	brne	.+6      	; 0xb90 <__fpcmp_parts_f+0x4e>
     b8a:	82 30       	cpi	r24, 0x02	; 2
     b8c:	b9 f7       	brne	.-18     	; 0xb7c <__fpcmp_parts_f+0x3a>
     b8e:	35 c0       	rjmp	.+106    	; 0xbfa <__fpcmp_parts_f+0xb8>
     b90:	82 30       	cpi	r24, 0x02	; 2
     b92:	69 f3       	breq	.-38     	; 0xb6e <__fpcmp_parts_f+0x2c>
     b94:	c1 81       	ldd	r28, Z+1	; 0x01
     b96:	11 96       	adiw	r26, 0x01	; 1
     b98:	8c 91       	ld	r24, X
     b9a:	11 97       	sbiw	r26, 0x01	; 1
     b9c:	c8 13       	cpse	r28, r24
     b9e:	1d c0       	rjmp	.+58     	; 0xbda <__fpcmp_parts_f+0x98>
     ba0:	22 81       	ldd	r18, Z+2	; 0x02
     ba2:	33 81       	ldd	r19, Z+3	; 0x03
     ba4:	12 96       	adiw	r26, 0x02	; 2
     ba6:	8d 91       	ld	r24, X+
     ba8:	9c 91       	ld	r25, X
     baa:	13 97       	sbiw	r26, 0x03	; 3
     bac:	82 17       	cp	r24, r18
     bae:	93 07       	cpc	r25, r19
     bb0:	0c f4       	brge	.+2      	; 0xbb4 <__fpcmp_parts_f+0x72>
     bb2:	13 c0       	rjmp	.+38     	; 0xbda <__fpcmp_parts_f+0x98>
     bb4:	28 17       	cp	r18, r24
     bb6:	39 07       	cpc	r19, r25
     bb8:	0c f4       	brge	.+2      	; 0xbbc <__fpcmp_parts_f+0x7a>
     bba:	17 c0       	rjmp	.+46     	; 0xbea <__fpcmp_parts_f+0xa8>
     bbc:	44 81       	ldd	r20, Z+4	; 0x04
     bbe:	55 81       	ldd	r21, Z+5	; 0x05
     bc0:	66 81       	ldd	r22, Z+6	; 0x06
     bc2:	77 81       	ldd	r23, Z+7	; 0x07
     bc4:	14 96       	adiw	r26, 0x04	; 4
     bc6:	8d 91       	ld	r24, X+
     bc8:	9d 91       	ld	r25, X+
     bca:	0d 90       	ld	r0, X+
     bcc:	bc 91       	ld	r27, X
     bce:	a0 2d       	mov	r26, r0
     bd0:	84 17       	cp	r24, r20
     bd2:	95 07       	cpc	r25, r21
     bd4:	a6 07       	cpc	r26, r22
     bd6:	b7 07       	cpc	r27, r23
     bd8:	18 f4       	brcc	.+6      	; 0xbe0 <__fpcmp_parts_f+0x9e>
     bda:	c1 11       	cpse	r28, r1
     bdc:	08 c0       	rjmp	.+16     	; 0xbee <__fpcmp_parts_f+0xac>
     bde:	0a c0       	rjmp	.+20     	; 0xbf4 <__fpcmp_parts_f+0xb2>
     be0:	48 17       	cp	r20, r24
     be2:	59 07       	cpc	r21, r25
     be4:	6a 07       	cpc	r22, r26
     be6:	7b 07       	cpc	r23, r27
     be8:	40 f4       	brcc	.+16     	; 0xbfa <__fpcmp_parts_f+0xb8>
     bea:	c1 11       	cpse	r28, r1
     bec:	03 c0       	rjmp	.+6      	; 0xbf4 <__fpcmp_parts_f+0xb2>
     bee:	2f ef       	ldi	r18, 0xFF	; 255
     bf0:	3f ef       	ldi	r19, 0xFF	; 255
     bf2:	05 c0       	rjmp	.+10     	; 0xbfe <__fpcmp_parts_f+0xbc>
     bf4:	21 e0       	ldi	r18, 0x01	; 1
     bf6:	30 e0       	ldi	r19, 0x00	; 0
     bf8:	02 c0       	rjmp	.+4      	; 0xbfe <__fpcmp_parts_f+0xbc>
     bfa:	20 e0       	ldi	r18, 0x00	; 0
     bfc:	30 e0       	ldi	r19, 0x00	; 0
     bfe:	c9 01       	movw	r24, r18
     c00:	cf 91       	pop	r28
     c02:	08 95       	ret

00000c04 <__vector_11>:
     c04:	1f 92       	push	r1
     c06:	0f 92       	push	r0
     c08:	0f b6       	in	r0, 0x3f	; 63
     c0a:	0f 92       	push	r0
     c0c:	11 24       	eor	r1, r1
     c0e:	2f 93       	push	r18
     c10:	8f 93       	push	r24
     c12:	9f 93       	push	r25
     c14:	ef 93       	push	r30
     c16:	ff 93       	push	r31
     c18:	e0 91 d1 00 	lds	r30, 0x00D1
     c1c:	8e 2f       	mov	r24, r30
     c1e:	8f 5f       	subi	r24, 0xFF	; 255
     c20:	8f 71       	andi	r24, 0x1F	; 31
     c22:	9c b1       	in	r25, 0x0c	; 12
     c24:	20 91 d0 00 	lds	r18, 0x00D0
     c28:	82 17       	cp	r24, r18
     c2a:	31 f0       	breq	.+12     	; 0xc38 <__vector_11+0x34>
     c2c:	f0 e0       	ldi	r31, 0x00	; 0
     c2e:	e0 55       	subi	r30, 0x50	; 80
     c30:	ff 4f       	sbci	r31, 0xFF	; 255
     c32:	90 83       	st	Z, r25
     c34:	80 93 d1 00 	sts	0x00D1, r24
     c38:	ff 91       	pop	r31
     c3a:	ef 91       	pop	r30
     c3c:	9f 91       	pop	r25
     c3e:	8f 91       	pop	r24
     c40:	2f 91       	pop	r18
     c42:	0f 90       	pop	r0
     c44:	0f be       	out	0x3f, r0	; 63
     c46:	0f 90       	pop	r0
     c48:	1f 90       	pop	r1
     c4a:	18 95       	reti

00000c4c <__vector_12>:
     c4c:	1f 92       	push	r1
     c4e:	0f 92       	push	r0
     c50:	0f b6       	in	r0, 0x3f	; 63
     c52:	0f 92       	push	r0
     c54:	11 24       	eor	r1, r1
     c56:	8f 93       	push	r24
     c58:	9f 93       	push	r25
     c5a:	ef 93       	push	r30
     c5c:	ff 93       	push	r31
     c5e:	80 91 d2 00 	lds	r24, 0x00D2
     c62:	90 91 8f 00 	lds	r25, 0x008F
     c66:	89 17       	cp	r24, r25
     c68:	59 f0       	breq	.+22     	; 0xc80 <__vector_12+0x34>
     c6a:	e8 2f       	mov	r30, r24
     c6c:	f0 e0       	ldi	r31, 0x00	; 0
     c6e:	e0 57       	subi	r30, 0x70	; 112
     c70:	ff 4f       	sbci	r31, 0xFF	; 255
     c72:	90 81       	ld	r25, Z
     c74:	9c b9       	out	0x0c, r25	; 12
     c76:	8f 5f       	subi	r24, 0xFF	; 255
     c78:	8f 71       	andi	r24, 0x1F	; 31
     c7a:	80 93 d2 00 	sts	0x00D2, r24
     c7e:	01 c0       	rjmp	.+2      	; 0xc82 <__vector_12+0x36>
     c80:	55 98       	cbi	0x0a, 5	; 10
     c82:	ff 91       	pop	r31
     c84:	ef 91       	pop	r30
     c86:	9f 91       	pop	r25
     c88:	8f 91       	pop	r24
     c8a:	0f 90       	pop	r0
     c8c:	0f be       	out	0x3f, r0	; 63
     c8e:	0f 90       	pop	r0
     c90:	1f 90       	pop	r1
     c92:	18 95       	reti

00000c94 <uart_write>:
     c94:	e0 91 8f 00 	lds	r30, 0x008F
     c98:	9e 2f       	mov	r25, r30
     c9a:	9f 5f       	subi	r25, 0xFF	; 255
     c9c:	9f 71       	andi	r25, 0x1F	; 31
     c9e:	20 91 d2 00 	lds	r18, 0x00D2
     ca2:	92 17       	cp	r25, r18
     ca4:	39 f0       	breq	.+14     	; 0xcb4 <uart_write+0x20>
     ca6:	f0 e0       	ldi	r31, 0x00	; 0
     ca8:	e0 57       	subi	r30, 0x70	; 112
     caa:	ff 4f       	sbci	r31, 0xFF	; 255
     cac:	80 83       	st	Z, r24
     cae:	90 93 8f 00 	sts	0x008F, r25
     cb2:	55 9a       	sbi	0x0a, 5	; 10
     cb4:	08 95       	ret

00000cb6 <uart_init>:
     cb6:	87 e6       	ldi	r24, 0x67	; 103
     cb8:	89 b9       	out	0x09, r24	; 9
     cba:	10 bc       	out	0x20, r1	; 32
     cbc:	88 e9       	ldi	r24, 0x98	; 152
     cbe:	8a b9       	out	0x0a, r24	; 10
     cc0:	08 95       	ret

00000cc2 <__vector_9>:
     cc2:	1f 92       	push	r1
     cc4:	0f 92       	push	r0
     cc6:	0f b6       	in	r0, 0x3f	; 63
     cc8:	0f 92       	push	r0
     cca:	11 24       	eor	r1, r1
     ccc:	8f 93       	push	r24
     cce:	9f 93       	push	r25
     cd0:	80 91 86 00 	lds	r24, 0x0086
     cd4:	81 30       	cpi	r24, 0x01	; 1
     cd6:	69 f4       	brne	.+26     	; 0xcf2 <__vector_9+0x30>
     cd8:	12 be       	out	0x32, r1	; 50
     cda:	1d bc       	out	0x2d, r1	; 45
     cdc:	1c bc       	out	0x2c, r1	; 44
     cde:	96 9a       	sbi	0x12, 6	; 18
     ce0:	95 e3       	ldi	r25, 0x35	; 53
     ce2:	9a 95       	dec	r25
     ce4:	f1 f7       	brne	.-4      	; 0xce2 <__vector_9+0x20>
     ce6:	00 00       	nop
     ce8:	96 98       	cbi	0x12, 6	; 18
     cea:	8e bd       	out	0x2e, r24	; 46
     cec:	10 92 86 00 	sts	0x0086, r1
     cf0:	03 c0       	rjmp	.+6      	; 0xcf8 <__vector_9+0x36>
     cf2:	81 e0       	ldi	r24, 0x01	; 1
     cf4:	80 93 86 00 	sts	0x0086, r24
     cf8:	9f 91       	pop	r25
     cfa:	8f 91       	pop	r24
     cfc:	0f 90       	pop	r0
     cfe:	0f be       	out	0x3f, r0	; 63
     d00:	0f 90       	pop	r0
     d02:	1f 90       	pop	r1
     d04:	18 95       	reti

00000d06 <__vector_8>:
     d06:	1f 92       	push	r1
     d08:	0f 92       	push	r0
     d0a:	0f b6       	in	r0, 0x3f	; 63
     d0c:	0f 92       	push	r0
     d0e:	11 24       	eor	r1, r1
     d10:	1e bc       	out	0x2e, r1	; 46
     d12:	1d bc       	out	0x2d, r1	; 45
     d14:	1c bc       	out	0x2c, r1	; 44
     d16:	0f 90       	pop	r0
     d18:	0f be       	out	0x3f, r0	; 63
     d1a:	0f 90       	pop	r0
     d1c:	1f 90       	pop	r1
     d1e:	18 95       	reti

00000d20 <__vector_1>:
     d20:	1f 92       	push	r1
     d22:	0f 92       	push	r0
     d24:	0f b6       	in	r0, 0x3f	; 63
     d26:	0f 92       	push	r0
     d28:	11 24       	eor	r1, r1
     d2a:	2f 93       	push	r18
     d2c:	3f 93       	push	r19
     d2e:	4f 93       	push	r20
     d30:	5f 93       	push	r21
     d32:	6f 93       	push	r22
     d34:	7f 93       	push	r23
     d36:	8f 93       	push	r24
     d38:	9f 93       	push	r25
     d3a:	af 93       	push	r26
     d3c:	bf 93       	push	r27
     d3e:	ef 93       	push	r30
     d40:	ff 93       	push	r31
     d42:	82 9b       	sbis	0x10, 2	; 16
     d44:	09 c0       	rjmp	.+18     	; 0xd58 <__vector_1+0x38>
     d46:	2c b5       	in	r18, 0x2c	; 44
     d48:	3d b5       	in	r19, 0x2d	; 45
     d4a:	82 99       	sbic	0x10, 2	; 16
     d4c:	fe cf       	rjmp	.-4      	; 0xd4a <__vector_1+0x2a>
     d4e:	8c b5       	in	r24, 0x2c	; 44
     d50:	9d b5       	in	r25, 0x2d	; 45
     d52:	82 1b       	sub	r24, r18
     d54:	93 0b       	sbc	r25, r19
     d56:	02 c0       	rjmp	.+4      	; 0xd5c <__vector_1+0x3c>
     d58:	80 e0       	ldi	r24, 0x00	; 0
     d5a:	90 e0       	ldi	r25, 0x00	; 0
     d5c:	87 9b       	sbis	0x10, 7	; 16
     d5e:	2f d0       	rcall	.+94     	; 0xdbe <filter>
     d60:	90 93 61 00 	sts	0x0061, r25
     d64:	80 93 60 00 	sts	0x0060, r24
     d68:	ff 91       	pop	r31
     d6a:	ef 91       	pop	r30
     d6c:	bf 91       	pop	r27
     d6e:	af 91       	pop	r26
     d70:	9f 91       	pop	r25
     d72:	8f 91       	pop	r24
     d74:	7f 91       	pop	r23
     d76:	6f 91       	pop	r22
     d78:	5f 91       	pop	r21
     d7a:	4f 91       	pop	r20
     d7c:	3f 91       	pop	r19
     d7e:	2f 91       	pop	r18
     d80:	0f 90       	pop	r0
     d82:	0f be       	out	0x3f, r0	; 63
     d84:	0f 90       	pop	r0
     d86:	1f 90       	pop	r1
     d88:	18 95       	reti

00000d8a <main>:
     d8a:	4c d0       	rcall	.+152    	; 0xe24 <init_mcu>
     d8c:	cc d0       	rcall	.+408    	; 0xf26 <init_LCD>
     d8e:	93 df       	rcall	.-218    	; 0xcb6 <uart_init>
     d90:	78 94       	sei
     d92:	60 91 60 00 	lds	r22, 0x0060
     d96:	70 91 61 00 	lds	r23, 0x0061
     d9a:	80 e0       	ldi	r24, 0x00	; 0
     d9c:	c7 d1       	rcall	.+910    	; 0x112c <Main_menu>
     d9e:	80 91 61 00 	lds	r24, 0x0061
     da2:	78 df       	rcall	.-272    	; 0xc94 <uart_write>
     da4:	80 91 60 00 	lds	r24, 0x0060
     da8:	75 df       	rcall	.-278    	; 0xc94 <uart_write>
     daa:	2f ef       	ldi	r18, 0xFF	; 255
     dac:	81 ee       	ldi	r24, 0xE1	; 225
     dae:	94 e0       	ldi	r25, 0x04	; 4
     db0:	21 50       	subi	r18, 0x01	; 1
     db2:	80 40       	sbci	r24, 0x00	; 0
     db4:	90 40       	sbci	r25, 0x00	; 0
     db6:	e1 f7       	brne	.-8      	; 0xdb0 <main+0x26>
     db8:	00 c0       	rjmp	.+0      	; 0xdba <main+0x30>
     dba:	00 00       	nop
     dbc:	ea cf       	rjmp	.-44     	; 0xd92 <main+0x8>

00000dbe <filter>:
     dbe:	cf 93       	push	r28
     dc0:	df 93       	push	r29
     dc2:	a9 e8       	ldi	r26, 0x89	; 137
     dc4:	b0 e0       	ldi	r27, 0x00	; 0
     dc6:	4d 91       	ld	r20, X+
     dc8:	5c 91       	ld	r21, X
     dca:	11 97       	sbiw	r26, 0x01	; 1
     dcc:	50 93 88 00 	sts	0x0088, r21
     dd0:	40 93 87 00 	sts	0x0087, r20
     dd4:	cb e8       	ldi	r28, 0x8B	; 139
     dd6:	d0 e0       	ldi	r29, 0x00	; 0
     dd8:	e8 81       	ld	r30, Y
     dda:	f9 81       	ldd	r31, Y+1	; 0x01
     ddc:	ed 93       	st	X+, r30
     dde:	fc 93       	st	X, r31
     de0:	ad e8       	ldi	r26, 0x8D	; 141
     de2:	b0 e0       	ldi	r27, 0x00	; 0
     de4:	2d 91       	ld	r18, X+
     de6:	3c 91       	ld	r19, X
     de8:	11 97       	sbiw	r26, 0x01	; 1
     dea:	39 83       	std	Y+1, r19	; 0x01
     dec:	28 83       	st	Y, r18
     dee:	8d 93       	st	X+, r24
     df0:	9c 93       	st	X, r25
     df2:	60 e0       	ldi	r22, 0x00	; 0
     df4:	70 e0       	ldi	r23, 0x00	; 0
     df6:	4e 0f       	add	r20, r30
     df8:	5f 1f       	adc	r21, r31
     dfa:	61 1d       	adc	r22, r1
     dfc:	71 1d       	adc	r23, r1
     dfe:	42 0f       	add	r20, r18
     e00:	53 1f       	adc	r21, r19
     e02:	61 1d       	adc	r22, r1
     e04:	71 1d       	adc	r23, r1
     e06:	48 0f       	add	r20, r24
     e08:	59 1f       	adc	r21, r25
     e0a:	61 1d       	adc	r22, r1
     e0c:	71 1d       	adc	r23, r1
     e0e:	82 e0       	ldi	r24, 0x02	; 2
     e10:	76 95       	lsr	r23
     e12:	67 95       	ror	r22
     e14:	57 95       	ror	r21
     e16:	47 95       	ror	r20
     e18:	8a 95       	dec	r24
     e1a:	d1 f7       	brne	.-12     	; 0xe10 <filter+0x52>
     e1c:	ca 01       	movw	r24, r20
     e1e:	df 91       	pop	r29
     e20:	cf 91       	pop	r28
     e22:	08 95       	ret

00000e24 <init_mcu>:
     e24:	18 ba       	out	0x18, r1	; 24
     e26:	8f e3       	ldi	r24, 0x3F	; 63
     e28:	87 bb       	out	0x17, r24	; 23
     e2a:	84 e8       	ldi	r24, 0x84	; 132
     e2c:	82 bb       	out	0x12, r24	; 18
     e2e:	80 e4       	ldi	r24, 0x40	; 64
     e30:	81 bb       	out	0x11, r24	; 17
     e32:	95 e0       	ldi	r25, 0x05	; 5
     e34:	93 bf       	out	0x33, r25	; 51
     e36:	12 be       	out	0x32, r1	; 50
     e38:	1f bc       	out	0x2f, r1	; 47
     e3a:	1e bc       	out	0x2e, r1	; 46
     e3c:	1d bc       	out	0x2d, r1	; 45
     e3e:	1c bc       	out	0x2c, r1	; 44
     e40:	17 bc       	out	0x27, r1	; 39
     e42:	16 bc       	out	0x26, r1	; 38
     e44:	1b bc       	out	0x2b, r1	; 43
     e46:	1a bc       	out	0x2a, r1	; 42
     e48:	19 bc       	out	0x29, r1	; 41
     e4a:	18 bc       	out	0x28, r1	; 40
     e4c:	12 bc       	out	0x22, r1	; 34
     e4e:	15 bc       	out	0x25, r1	; 37
     e50:	14 bc       	out	0x24, r1	; 36
     e52:	13 bc       	out	0x23, r1	; 35
     e54:	8b bf       	out	0x3b, r24	; 59
     e56:	23 e0       	ldi	r18, 0x03	; 3
     e58:	25 bf       	out	0x35, r18	; 53
     e5a:	8a bf       	out	0x3a, r24	; 58
     e5c:	99 bf       	out	0x39, r25	; 57
     e5e:	1a b8       	out	0x0a, r1	; 10
     e60:	80 e8       	ldi	r24, 0x80	; 128
     e62:	88 b9       	out	0x08, r24	; 8
     e64:	10 be       	out	0x30, r1	; 48
     e66:	16 b8       	out	0x06, r1	; 6
     e68:	1d b8       	out	0x0d, r1	; 13
     e6a:	16 be       	out	0x36, r1	; 54
     e6c:	8f e3       	ldi	r24, 0x3F	; 63
     e6e:	9c e9       	ldi	r25, 0x9C	; 156
     e70:	01 97       	sbiw	r24, 0x01	; 1
     e72:	f1 f7       	brne	.-4      	; 0xe70 <init_mcu+0x4c>
     e74:	00 c0       	rjmp	.+0      	; 0xe76 <init_mcu+0x52>
     e76:	00 00       	nop
     e78:	08 95       	ret

00000e7a <send_lcd_byte>:
     e7a:	61 11       	cpse	r22, r1
     e7c:	02 c0       	rjmp	.+4      	; 0xe82 <send_lcd_byte+0x8>
     e7e:	c0 98       	cbi	0x18, 0	; 24
     e80:	01 c0       	rjmp	.+2      	; 0xe84 <send_lcd_byte+0xa>
     e82:	c0 9a       	sbi	0x18, 0	; 24
     e84:	87 ff       	sbrs	r24, 7
     e86:	02 c0       	rjmp	.+4      	; 0xe8c <send_lcd_byte+0x12>
     e88:	c5 9a       	sbi	0x18, 5	; 24
     e8a:	01 c0       	rjmp	.+2      	; 0xe8e <send_lcd_byte+0x14>
     e8c:	c5 98       	cbi	0x18, 5	; 24
     e8e:	86 ff       	sbrs	r24, 6
     e90:	02 c0       	rjmp	.+4      	; 0xe96 <send_lcd_byte+0x1c>
     e92:	c4 9a       	sbi	0x18, 4	; 24
     e94:	01 c0       	rjmp	.+2      	; 0xe98 <send_lcd_byte+0x1e>
     e96:	c4 98       	cbi	0x18, 4	; 24
     e98:	85 ff       	sbrs	r24, 5
     e9a:	02 c0       	rjmp	.+4      	; 0xea0 <send_lcd_byte+0x26>
     e9c:	c3 9a       	sbi	0x18, 3	; 24
     e9e:	01 c0       	rjmp	.+2      	; 0xea2 <send_lcd_byte+0x28>
     ea0:	c3 98       	cbi	0x18, 3	; 24
     ea2:	84 ff       	sbrs	r24, 4
     ea4:	02 c0       	rjmp	.+4      	; 0xeaa <send_lcd_byte+0x30>
     ea6:	c2 9a       	sbi	0x18, 2	; 24
     ea8:	01 c0       	rjmp	.+2      	; 0xeac <send_lcd_byte+0x32>
     eaa:	c2 98       	cbi	0x18, 2	; 24
     eac:	e7 ec       	ldi	r30, 0xC7	; 199
     eae:	f0 e0       	ldi	r31, 0x00	; 0
     eb0:	31 97       	sbiw	r30, 0x01	; 1
     eb2:	f1 f7       	brne	.-4      	; 0xeb0 <send_lcd_byte+0x36>
     eb4:	00 c0       	rjmp	.+0      	; 0xeb6 <send_lcd_byte+0x3c>
     eb6:	00 00       	nop
     eb8:	c1 9a       	sbi	0x18, 1	; 24
     eba:	e7 ec       	ldi	r30, 0xC7	; 199
     ebc:	f0 e0       	ldi	r31, 0x00	; 0
     ebe:	31 97       	sbiw	r30, 0x01	; 1
     ec0:	f1 f7       	brne	.-4      	; 0xebe <send_lcd_byte+0x44>
     ec2:	00 c0       	rjmp	.+0      	; 0xec4 <send_lcd_byte+0x4a>
     ec4:	00 00       	nop
     ec6:	c1 98       	cbi	0x18, 1	; 24
     ec8:	e7 ec       	ldi	r30, 0xC7	; 199
     eca:	f0 e0       	ldi	r31, 0x00	; 0
     ecc:	31 97       	sbiw	r30, 0x01	; 1
     ece:	f1 f7       	brne	.-4      	; 0xecc <send_lcd_byte+0x52>
     ed0:	00 c0       	rjmp	.+0      	; 0xed2 <send_lcd_byte+0x58>
     ed2:	00 00       	nop
     ed4:	83 ff       	sbrs	r24, 3
     ed6:	02 c0       	rjmp	.+4      	; 0xedc <send_lcd_byte+0x62>
     ed8:	c5 9a       	sbi	0x18, 5	; 24
     eda:	01 c0       	rjmp	.+2      	; 0xede <send_lcd_byte+0x64>
     edc:	c5 98       	cbi	0x18, 5	; 24
     ede:	82 ff       	sbrs	r24, 2
     ee0:	02 c0       	rjmp	.+4      	; 0xee6 <send_lcd_byte+0x6c>
     ee2:	c4 9a       	sbi	0x18, 4	; 24
     ee4:	01 c0       	rjmp	.+2      	; 0xee8 <send_lcd_byte+0x6e>
     ee6:	c4 98       	cbi	0x18, 4	; 24
     ee8:	81 ff       	sbrs	r24, 1
     eea:	02 c0       	rjmp	.+4      	; 0xef0 <send_lcd_byte+0x76>
     eec:	c3 9a       	sbi	0x18, 3	; 24
     eee:	01 c0       	rjmp	.+2      	; 0xef2 <send_lcd_byte+0x78>
     ef0:	c3 98       	cbi	0x18, 3	; 24
     ef2:	80 ff       	sbrs	r24, 0
     ef4:	02 c0       	rjmp	.+4      	; 0xefa <send_lcd_byte+0x80>
     ef6:	c2 9a       	sbi	0x18, 2	; 24
     ef8:	01 c0       	rjmp	.+2      	; 0xefc <send_lcd_byte+0x82>
     efa:	c2 98       	cbi	0x18, 2	; 24
     efc:	87 ec       	ldi	r24, 0xC7	; 199
     efe:	90 e0       	ldi	r25, 0x00	; 0
     f00:	01 97       	sbiw	r24, 0x01	; 1
     f02:	f1 f7       	brne	.-4      	; 0xf00 <send_lcd_byte+0x86>
     f04:	00 c0       	rjmp	.+0      	; 0xf06 <send_lcd_byte+0x8c>
     f06:	00 00       	nop
     f08:	c1 9a       	sbi	0x18, 1	; 24
     f0a:	e7 ec       	ldi	r30, 0xC7	; 199
     f0c:	f0 e0       	ldi	r31, 0x00	; 0
     f0e:	31 97       	sbiw	r30, 0x01	; 1
     f10:	f1 f7       	brne	.-4      	; 0xf0e <send_lcd_byte+0x94>
     f12:	00 c0       	rjmp	.+0      	; 0xf14 <send_lcd_byte+0x9a>
     f14:	00 00       	nop
     f16:	c1 98       	cbi	0x18, 1	; 24
     f18:	87 ec       	ldi	r24, 0xC7	; 199
     f1a:	90 e0       	ldi	r25, 0x00	; 0
     f1c:	01 97       	sbiw	r24, 0x01	; 1
     f1e:	f1 f7       	brne	.-4      	; 0xf1c <send_lcd_byte+0xa2>
     f20:	00 c0       	rjmp	.+0      	; 0xf22 <send_lcd_byte+0xa8>
     f22:	00 00       	nop
     f24:	08 95       	ret

00000f26 <init_LCD>:
     f26:	c2 9a       	sbi	0x18, 2	; 24
     f28:	c3 9a       	sbi	0x18, 3	; 24
     f2a:	c1 9a       	sbi	0x18, 1	; 24
     f2c:	2f ef       	ldi	r18, 0xFF	; 255
     f2e:	89 ef       	ldi	r24, 0xF9	; 249
     f30:	90 e0       	ldi	r25, 0x00	; 0
     f32:	21 50       	subi	r18, 0x01	; 1
     f34:	80 40       	sbci	r24, 0x00	; 0
     f36:	90 40       	sbci	r25, 0x00	; 0
     f38:	e1 f7       	brne	.-8      	; 0xf32 <init_LCD+0xc>
     f3a:	00 c0       	rjmp	.+0      	; 0xf3c <init_LCD+0x16>
     f3c:	00 00       	nop
     f3e:	c1 98       	cbi	0x18, 1	; 24
     f40:	2f ef       	ldi	r18, 0xFF	; 255
     f42:	89 ef       	ldi	r24, 0xF9	; 249
     f44:	90 e0       	ldi	r25, 0x00	; 0
     f46:	21 50       	subi	r18, 0x01	; 1
     f48:	80 40       	sbci	r24, 0x00	; 0
     f4a:	90 40       	sbci	r25, 0x00	; 0
     f4c:	e1 f7       	brne	.-8      	; 0xf46 <init_LCD+0x20>
     f4e:	00 c0       	rjmp	.+0      	; 0xf50 <init_LCD+0x2a>
     f50:	00 00       	nop
     f52:	c1 9a       	sbi	0x18, 1	; 24
     f54:	2f ef       	ldi	r18, 0xFF	; 255
     f56:	89 ef       	ldi	r24, 0xF9	; 249
     f58:	90 e0       	ldi	r25, 0x00	; 0
     f5a:	21 50       	subi	r18, 0x01	; 1
     f5c:	80 40       	sbci	r24, 0x00	; 0
     f5e:	90 40       	sbci	r25, 0x00	; 0
     f60:	e1 f7       	brne	.-8      	; 0xf5a <init_LCD+0x34>
     f62:	00 c0       	rjmp	.+0      	; 0xf64 <init_LCD+0x3e>
     f64:	00 00       	nop
     f66:	c1 98       	cbi	0x18, 1	; 24
     f68:	2f ef       	ldi	r18, 0xFF	; 255
     f6a:	89 ef       	ldi	r24, 0xF9	; 249
     f6c:	90 e0       	ldi	r25, 0x00	; 0
     f6e:	21 50       	subi	r18, 0x01	; 1
     f70:	80 40       	sbci	r24, 0x00	; 0
     f72:	90 40       	sbci	r25, 0x00	; 0
     f74:	e1 f7       	brne	.-8      	; 0xf6e <init_LCD+0x48>
     f76:	00 c0       	rjmp	.+0      	; 0xf78 <init_LCD+0x52>
     f78:	00 00       	nop
     f7a:	c1 9a       	sbi	0x18, 1	; 24
     f7c:	2f ef       	ldi	r18, 0xFF	; 255
     f7e:	89 ef       	ldi	r24, 0xF9	; 249
     f80:	90 e0       	ldi	r25, 0x00	; 0
     f82:	21 50       	subi	r18, 0x01	; 1
     f84:	80 40       	sbci	r24, 0x00	; 0
     f86:	90 40       	sbci	r25, 0x00	; 0
     f88:	e1 f7       	brne	.-8      	; 0xf82 <init_LCD+0x5c>
     f8a:	00 c0       	rjmp	.+0      	; 0xf8c <init_LCD+0x66>
     f8c:	00 00       	nop
     f8e:	c1 98       	cbi	0x18, 1	; 24
     f90:	2f ef       	ldi	r18, 0xFF	; 255
     f92:	89 ef       	ldi	r24, 0xF9	; 249
     f94:	90 e0       	ldi	r25, 0x00	; 0
     f96:	21 50       	subi	r18, 0x01	; 1
     f98:	80 40       	sbci	r24, 0x00	; 0
     f9a:	90 40       	sbci	r25, 0x00	; 0
     f9c:	e1 f7       	brne	.-8      	; 0xf96 <init_LCD+0x70>
     f9e:	00 c0       	rjmp	.+0      	; 0xfa0 <init_LCD+0x7a>
     fa0:	00 00       	nop
     fa2:	c2 98       	cbi	0x18, 2	; 24
     fa4:	8f e3       	ldi	r24, 0x3F	; 63
     fa6:	9c e9       	ldi	r25, 0x9C	; 156
     fa8:	01 97       	sbiw	r24, 0x01	; 1
     faa:	f1 f7       	brne	.-4      	; 0xfa8 <init_LCD+0x82>
     fac:	00 c0       	rjmp	.+0      	; 0xfae <init_LCD+0x88>
     fae:	00 00       	nop
     fb0:	c1 9a       	sbi	0x18, 1	; 24
     fb2:	9f ef       	ldi	r25, 0xFF	; 255
     fb4:	29 ef       	ldi	r18, 0xF9	; 249
     fb6:	80 e0       	ldi	r24, 0x00	; 0
     fb8:	91 50       	subi	r25, 0x01	; 1
     fba:	20 40       	sbci	r18, 0x00	; 0
     fbc:	80 40       	sbci	r24, 0x00	; 0
     fbe:	e1 f7       	brne	.-8      	; 0xfb8 <init_LCD+0x92>
     fc0:	00 c0       	rjmp	.+0      	; 0xfc2 <init_LCD+0x9c>
     fc2:	00 00       	nop
     fc4:	c1 98       	cbi	0x18, 1	; 24
     fc6:	9f ef       	ldi	r25, 0xFF	; 255
     fc8:	29 ef       	ldi	r18, 0xF9	; 249
     fca:	80 e0       	ldi	r24, 0x00	; 0
     fcc:	91 50       	subi	r25, 0x01	; 1
     fce:	20 40       	sbci	r18, 0x00	; 0
     fd0:	80 40       	sbci	r24, 0x00	; 0
     fd2:	e1 f7       	brne	.-8      	; 0xfcc <init_LCD+0xa6>
     fd4:	00 c0       	rjmp	.+0      	; 0xfd6 <init_LCD+0xb0>
     fd6:	00 00       	nop
     fd8:	60 e0       	ldi	r22, 0x00	; 0
     fda:	88 e2       	ldi	r24, 0x28	; 40
     fdc:	4e df       	rcall	.-356    	; 0xe7a <send_lcd_byte>
     fde:	60 e0       	ldi	r22, 0x00	; 0
     fe0:	8c e0       	ldi	r24, 0x0C	; 12
     fe2:	4b df       	rcall	.-362    	; 0xe7a <send_lcd_byte>
     fe4:	60 e0       	ldi	r22, 0x00	; 0
     fe6:	86 e0       	ldi	r24, 0x06	; 6
     fe8:	48 df       	rcall	.-368    	; 0xe7a <send_lcd_byte>
     fea:	60 e0       	ldi	r22, 0x00	; 0
     fec:	81 e0       	ldi	r24, 0x01	; 1
     fee:	45 df       	rcall	.-374    	; 0xe7a <send_lcd_byte>
     ff0:	8f e3       	ldi	r24, 0x3F	; 63
     ff2:	9c e9       	ldi	r25, 0x9C	; 156
     ff4:	01 97       	sbiw	r24, 0x01	; 1
     ff6:	f1 f7       	brne	.-4      	; 0xff4 <init_LCD+0xce>
     ff8:	00 c0       	rjmp	.+0      	; 0xffa <init_LCD+0xd4>
     ffa:	00 00       	nop
     ffc:	08 95       	ret

00000ffe <send_lcd_symbol>:
     ffe:	61 e0       	ldi	r22, 0x01	; 1
    1000:	3c cf       	rjmp	.-392    	; 0xe7a <send_lcd_byte>

00001002 <set_lcd_position>:
    1002:	cf 93       	push	r28
    1004:	df 93       	push	r29
    1006:	c8 2f       	mov	r28, r24
    1008:	d6 2f       	mov	r29, r22
    100a:	81 30       	cpi	r24, 0x01	; 1
    100c:	29 f4       	brne	.+10     	; 0x1018 <set_lcd_position+0x16>
    100e:	c6 2f       	mov	r28, r22
    1010:	c1 58       	subi	r28, 0x81	; 129
    1012:	60 e0       	ldi	r22, 0x00	; 0
    1014:	8c 2f       	mov	r24, r28
    1016:	31 df       	rcall	.-414    	; 0xe7a <send_lcd_byte>
    1018:	c2 30       	cpi	r28, 0x02	; 2
    101a:	31 f4       	brne	.+12     	; 0x1028 <set_lcd_position+0x26>
    101c:	60 e0       	ldi	r22, 0x00	; 0
    101e:	8d 2f       	mov	r24, r29
    1020:	81 54       	subi	r24, 0x41	; 65
    1022:	df 91       	pop	r29
    1024:	cf 91       	pop	r28
    1026:	29 cf       	rjmp	.-430    	; 0xe7a <send_lcd_byte>
    1028:	df 91       	pop	r29
    102a:	cf 91       	pop	r28
    102c:	08 95       	ret

0000102e <send_lcd_string>:
    102e:	1f 93       	push	r17
    1030:	cf 93       	push	r28
    1032:	df 93       	push	r29
    1034:	ec 01       	movw	r28, r24
    1036:	10 e0       	ldi	r17, 0x00	; 0
    1038:	03 c0       	rjmp	.+6      	; 0x1040 <send_lcd_string+0x12>
    103a:	61 e0       	ldi	r22, 0x01	; 1
    103c:	1e df       	rcall	.-452    	; 0xe7a <send_lcd_byte>
    103e:	1f 5f       	subi	r17, 0xFF	; 255
    1040:	fe 01       	movw	r30, r28
    1042:	e1 0f       	add	r30, r17
    1044:	f1 1d       	adc	r31, r1
    1046:	80 81       	ld	r24, Z
    1048:	81 11       	cpse	r24, r1
    104a:	f7 cf       	rjmp	.-18     	; 0x103a <send_lcd_string+0xc>
    104c:	df 91       	pop	r29
    104e:	cf 91       	pop	r28
    1050:	1f 91       	pop	r17
    1052:	08 95       	ret

00001054 <detect_symbol>:
    1054:	81 50       	subi	r24, 0x01	; 1
    1056:	89 30       	cpi	r24, 0x09	; 9
    1058:	30 f4       	brcc	.+12     	; 0x1066 <detect_symbol+0x12>
    105a:	e8 2f       	mov	r30, r24
    105c:	f0 e0       	ldi	r31, 0x00	; 0
    105e:	e6 59       	subi	r30, 0x96	; 150
    1060:	ff 4f       	sbci	r31, 0xFF	; 255
    1062:	80 81       	ld	r24, Z
    1064:	08 95       	ret
    1066:	80 e3       	ldi	r24, 0x30	; 48
    1068:	08 95       	ret

0000106a <detect_string>:
    106a:	8f 92       	push	r8
    106c:	9f 92       	push	r9
    106e:	af 92       	push	r10
    1070:	bf 92       	push	r11
    1072:	cf 92       	push	r12
    1074:	df 92       	push	r13
    1076:	ef 92       	push	r14
    1078:	ff 92       	push	r15
    107a:	0f 93       	push	r16
    107c:	1f 93       	push	r17
    107e:	cf 93       	push	r28
    1080:	df 93       	push	r29
    1082:	cd b7       	in	r28, 0x3d	; 61
    1084:	de b7       	in	r29, 0x3e	; 62
    1086:	29 97       	sbiw	r28, 0x09	; 9
    1088:	0f b6       	in	r0, 0x3f	; 63
    108a:	f8 94       	cli
    108c:	de bf       	out	0x3e, r29	; 62
    108e:	0f be       	out	0x3f, r0	; 63
    1090:	cd bf       	out	0x3d, r28	; 61
    1092:	aa 24       	eor	r10, r10
    1094:	a3 94       	inc	r10
    1096:	b1 2c       	mov	r11, r1
    1098:	ac 0e       	add	r10, r28
    109a:	bd 1e       	adc	r11, r29
    109c:	25 e0       	ldi	r18, 0x05	; 5
    109e:	f5 01       	movw	r30, r10
    10a0:	11 92       	st	Z+, r1
    10a2:	2a 95       	dec	r18
    10a4:	e9 f7       	brne	.-6      	; 0x10a0 <detect_string+0x36>
    10a6:	8e 01       	movw	r16, r28
    10a8:	0e 5f       	subi	r16, 0xFE	; 254
    10aa:	1f 4f       	sbci	r17, 0xFF	; 255
    10ac:	4e 01       	movw	r8, r28
    10ae:	f6 e0       	ldi	r31, 0x06	; 6
    10b0:	8f 0e       	add	r8, r31
    10b2:	91 1c       	adc	r9, r1
    10b4:	4a e0       	ldi	r20, 0x0A	; 10
    10b6:	c4 2e       	mov	r12, r20
    10b8:	d1 2c       	mov	r13, r1
    10ba:	e1 2c       	mov	r14, r1
    10bc:	f1 2c       	mov	r15, r1
    10be:	a7 01       	movw	r20, r14
    10c0:	96 01       	movw	r18, r12
    10c2:	7f d0       	rcall	.+254    	; 0x11c2 <__udivmodsi4>
    10c4:	86 2f       	mov	r24, r22
    10c6:	2e 83       	std	Y+6, r18	; 0x06
    10c8:	3f 83       	std	Y+7, r19	; 0x07
    10ca:	48 87       	std	Y+8, r20	; 0x08
    10cc:	59 87       	std	Y+9, r21	; 0x09
    10ce:	c2 df       	rcall	.-124    	; 0x1054 <detect_symbol>
    10d0:	f8 01       	movw	r30, r16
    10d2:	81 93       	st	Z+, r24
    10d4:	8f 01       	movw	r16, r30
    10d6:	2e 81       	ldd	r18, Y+6	; 0x06
    10d8:	62 2f       	mov	r22, r18
    10da:	3f 81       	ldd	r19, Y+7	; 0x07
    10dc:	73 2f       	mov	r23, r19
    10de:	48 85       	ldd	r20, Y+8	; 0x08
    10e0:	84 2f       	mov	r24, r20
    10e2:	59 85       	ldd	r21, Y+9	; 0x09
    10e4:	95 2f       	mov	r25, r21
    10e6:	e8 15       	cp	r30, r8
    10e8:	f9 05       	cpc	r31, r9
    10ea:	49 f7       	brne	.-46     	; 0x10be <detect_string+0x54>
    10ec:	8e 01       	movw	r16, r28
    10ee:	0a 5f       	subi	r16, 0xFA	; 250
    10f0:	1f 4f       	sbci	r17, 0xFF	; 255
    10f2:	ff ef       	ldi	r31, 0xFF	; 255
    10f4:	af 1a       	sub	r10, r31
    10f6:	bf 0a       	sbc	r11, r31
    10f8:	f8 01       	movw	r30, r16
    10fa:	82 91       	ld	r24, -Z
    10fc:	8f 01       	movw	r16, r30
    10fe:	7f df       	rcall	.-258    	; 0xffe <send_lcd_symbol>
    1100:	0a 15       	cp	r16, r10
    1102:	1b 05       	cpc	r17, r11
    1104:	c9 f7       	brne	.-14     	; 0x10f8 <detect_string+0x8e>
    1106:	29 96       	adiw	r28, 0x09	; 9
    1108:	0f b6       	in	r0, 0x3f	; 63
    110a:	f8 94       	cli
    110c:	de bf       	out	0x3e, r29	; 62
    110e:	0f be       	out	0x3f, r0	; 63
    1110:	cd bf       	out	0x3d, r28	; 61
    1112:	df 91       	pop	r29
    1114:	cf 91       	pop	r28
    1116:	1f 91       	pop	r17
    1118:	0f 91       	pop	r16
    111a:	ff 90       	pop	r15
    111c:	ef 90       	pop	r14
    111e:	df 90       	pop	r13
    1120:	cf 90       	pop	r12
    1122:	bf 90       	pop	r11
    1124:	af 90       	pop	r10
    1126:	9f 90       	pop	r9
    1128:	8f 90       	pop	r8
    112a:	08 95       	ret

0000112c <Main_menu>:
    112c:	ff 92       	push	r15
    112e:	0f 93       	push	r16
    1130:	1f 93       	push	r17
    1132:	cf 93       	push	r28
    1134:	df 93       	push	r29
    1136:	f8 2e       	mov	r15, r24
    1138:	80 e0       	ldi	r24, 0x00	; 0
    113a:	90 e0       	ldi	r25, 0x00	; 0
    113c:	57 db       	rcall	.-2386   	; 0x7ec <__floatunsisf>
    113e:	8b 01       	movw	r16, r22
    1140:	d8 2f       	mov	r29, r24
    1142:	c9 2f       	mov	r28, r25
    1144:	63 e0       	ldi	r22, 0x03	; 3
    1146:	81 e0       	ldi	r24, 0x01	; 1
    1148:	5c df       	rcall	.-328    	; 0x1002 <set_lcd_position>
    114a:	f1 10       	cpse	r15, r1
    114c:	03 c0       	rjmp	.+6      	; 0x1154 <Main_menu+0x28>
    114e:	83 e7       	ldi	r24, 0x73	; 115
    1150:	90 e0       	ldi	r25, 0x00	; 0
    1152:	6d df       	rcall	.-294    	; 0x102e <send_lcd_string>
    1154:	64 e0       	ldi	r22, 0x04	; 4
    1156:	82 e0       	ldi	r24, 0x02	; 2
    1158:	54 df       	rcall	.-344    	; 0x1002 <set_lcd_position>
    115a:	20 e0       	ldi	r18, 0x00	; 0
    115c:	30 e4       	ldi	r19, 0x40	; 64
    115e:	4c e1       	ldi	r20, 0x1C	; 28
    1160:	56 e4       	ldi	r21, 0x46	; 70
    1162:	fe 01       	movw	r30, r28
    1164:	60 2f       	mov	r22, r16
    1166:	71 2f       	mov	r23, r17
    1168:	8f 2f       	mov	r24, r31
    116a:	9c 2f       	mov	r25, r28
    116c:	4b d9       	rcall	.-3434   	; 0x404 <__mulsf3>
    116e:	20 e0       	ldi	r18, 0x00	; 0
    1170:	30 e0       	ldi	r19, 0x00	; 0
    1172:	48 e6       	ldi	r20, 0x68	; 104
    1174:	52 e4       	ldi	r21, 0x42	; 66
    1176:	26 da       	rcall	.-2996   	; 0x5c4 <__divsf3>
    1178:	8b 01       	movw	r16, r22
    117a:	d8 2f       	mov	r29, r24
    117c:	c9 2f       	mov	r28, r25
    117e:	20 e0       	ldi	r18, 0x00	; 0
    1180:	30 e4       	ldi	r19, 0x40	; 64
    1182:	4c e1       	ldi	r20, 0x1C	; 28
    1184:	56 e4       	ldi	r21, 0x46	; 70
    1186:	fe 01       	movw	r30, r28
    1188:	71 2f       	mov	r23, r17
    118a:	8f 2f       	mov	r24, r31
    118c:	9e 2f       	mov	r25, r30
    118e:	1a da       	rcall	.-3020   	; 0x5c4 <__divsf3>
    1190:	66 d7       	rcall	.+3788   	; 0x205e <__data_load_end+0xd8e>
    1192:	80 e0       	ldi	r24, 0x00	; 0
    1194:	90 e0       	ldi	r25, 0x00	; 0
    1196:	69 df       	rcall	.-302    	; 0x106a <detect_string>
    1198:	80 e8       	ldi	r24, 0x80	; 128
    119a:	90 e0       	ldi	r25, 0x00	; 0
    119c:	48 df       	rcall	.-368    	; 0x102e <send_lcd_string>
    119e:	9e 01       	movw	r18, r28
    11a0:	60 2f       	mov	r22, r16
    11a2:	71 2f       	mov	r23, r17
    11a4:	83 2f       	mov	r24, r19
    11a6:	92 2f       	mov	r25, r18
    11a8:	5a d7       	rcall	.+3764   	; 0x205e <__data_load_end+0xd8e>
    11aa:	5f df       	rcall	.-322    	; 0x106a <detect_string>
    11ac:	6e e0       	ldi	r22, 0x0E	; 14
    11ae:	82 e0       	ldi	r24, 0x02	; 2
    11b0:	28 df       	rcall	.-432    	; 0x1002 <set_lcd_position>
    11b2:	82 e8       	ldi	r24, 0x82	; 130
    11b4:	90 e0       	ldi	r25, 0x00	; 0
    11b6:	df 91       	pop	r29
    11b8:	cf 91       	pop	r28
    11ba:	1f 91       	pop	r17
    11bc:	0f 91       	pop	r16
    11be:	ff 90       	pop	r15
    11c0:	36 cf       	rjmp	.-404    	; 0x102e <send_lcd_string>

000011c2 <__udivmodsi4>:
    11c2:	a1 e2       	ldi	r26, 0x21	; 33
    11c4:	1a 2e       	mov	r1, r26
    11c6:	aa 1b       	sub	r26, r26
    11c8:	bb 1b       	sub	r27, r27
    11ca:	fd 01       	movw	r30, r26
    11cc:	0d c0       	rjmp	.+26     	; 0x11e8 <__udivmodsi4_ep>

000011ce <__udivmodsi4_loop>:
    11ce:	aa 1f       	adc	r26, r26
    11d0:	bb 1f       	adc	r27, r27
    11d2:	ee 1f       	adc	r30, r30
    11d4:	ff 1f       	adc	r31, r31
    11d6:	a2 17       	cp	r26, r18
    11d8:	b3 07       	cpc	r27, r19
    11da:	e4 07       	cpc	r30, r20
    11dc:	f5 07       	cpc	r31, r21
    11de:	20 f0       	brcs	.+8      	; 0x11e8 <__udivmodsi4_ep>
    11e0:	a2 1b       	sub	r26, r18
    11e2:	b3 0b       	sbc	r27, r19
    11e4:	e4 0b       	sbc	r30, r20
    11e6:	f5 0b       	sbc	r31, r21

000011e8 <__udivmodsi4_ep>:
    11e8:	66 1f       	adc	r22, r22
    11ea:	77 1f       	adc	r23, r23
    11ec:	88 1f       	adc	r24, r24
    11ee:	99 1f       	adc	r25, r25
    11f0:	1a 94       	dec	r1
    11f2:	69 f7       	brne	.-38     	; 0x11ce <__udivmodsi4_loop>
    11f4:	60 95       	com	r22
    11f6:	70 95       	com	r23
    11f8:	80 95       	com	r24
    11fa:	90 95       	com	r25
    11fc:	9b 01       	movw	r18, r22
    11fe:	ac 01       	movw	r20, r24
    1200:	bd 01       	movw	r22, r26
    1202:	cf 01       	movw	r24, r30
    1204:	08 95       	ret

00001206 <__clzsi2>:
    1206:	06 d0       	rcall	.+12     	; 0x1214 <__clzhi2>
    1208:	84 ff       	sbrs	r24, 4
    120a:	08 95       	ret
    120c:	cb 01       	movw	r24, r22
    120e:	02 d0       	rcall	.+4      	; 0x1214 <__clzhi2>
    1210:	80 5f       	subi	r24, 0xF0	; 240
    1212:	08 95       	ret

00001214 <__clzhi2>:
    1214:	aa 27       	eor	r26, r26
    1216:	99 23       	and	r25, r25
    1218:	29 f4       	brne	.+10     	; 0x1224 <__clzhi2+0x10>
    121a:	a8 5f       	subi	r26, 0xF8	; 248
    121c:	98 2b       	or	r25, r24
    121e:	11 f4       	brne	.+4      	; 0x1224 <__clzhi2+0x10>
    1220:	80 e1       	ldi	r24, 0x10	; 16
    1222:	08 95       	ret
    1224:	90 31       	cpi	r25, 0x10	; 16
    1226:	18 f4       	brcc	.+6      	; 0x122e <__clzhi2+0x1a>
    1228:	ad 5f       	subi	r26, 0xFD	; 253
    122a:	92 95       	swap	r25
    122c:	a3 95       	inc	r26
    122e:	99 0f       	add	r25, r25
    1230:	e8 f7       	brcc	.-6      	; 0x122c <__clzhi2+0x18>
    1232:	8a 2f       	mov	r24, r26
    1234:	99 27       	eor	r25, r25
    1236:	08 95       	ret

00001238 <__prologue_saves__>:
    1238:	2f 92       	push	r2
    123a:	3f 92       	push	r3
    123c:	4f 92       	push	r4
    123e:	5f 92       	push	r5
    1240:	6f 92       	push	r6
    1242:	7f 92       	push	r7
    1244:	8f 92       	push	r8
    1246:	9f 92       	push	r9
    1248:	af 92       	push	r10
    124a:	bf 92       	push	r11
    124c:	cf 92       	push	r12
    124e:	df 92       	push	r13
    1250:	ef 92       	push	r14
    1252:	ff 92       	push	r15
    1254:	0f 93       	push	r16
    1256:	1f 93       	push	r17
    1258:	cf 93       	push	r28
    125a:	df 93       	push	r29
    125c:	cd b7       	in	r28, 0x3d	; 61
    125e:	de b7       	in	r29, 0x3e	; 62
    1260:	ca 1b       	sub	r28, r26
    1262:	db 0b       	sbc	r29, r27
    1264:	0f b6       	in	r0, 0x3f	; 63
    1266:	f8 94       	cli
    1268:	de bf       	out	0x3e, r29	; 62
    126a:	0f be       	out	0x3f, r0	; 63
    126c:	cd bf       	out	0x3d, r28	; 61
    126e:	09 94       	ijmp

00001270 <__epilogue_restores__>:
    1270:	2a 88       	ldd	r2, Y+18	; 0x12
    1272:	39 88       	ldd	r3, Y+17	; 0x11
    1274:	48 88       	ldd	r4, Y+16	; 0x10
    1276:	5f 84       	ldd	r5, Y+15	; 0x0f
    1278:	6e 84       	ldd	r6, Y+14	; 0x0e
    127a:	7d 84       	ldd	r7, Y+13	; 0x0d
    127c:	8c 84       	ldd	r8, Y+12	; 0x0c
    127e:	9b 84       	ldd	r9, Y+11	; 0x0b
    1280:	aa 84       	ldd	r10, Y+10	; 0x0a
    1282:	b9 84       	ldd	r11, Y+9	; 0x09
    1284:	c8 84       	ldd	r12, Y+8	; 0x08
    1286:	df 80       	ldd	r13, Y+7	; 0x07
    1288:	ee 80       	ldd	r14, Y+6	; 0x06
    128a:	fd 80       	ldd	r15, Y+5	; 0x05
    128c:	0c 81       	ldd	r16, Y+4	; 0x04
    128e:	1b 81       	ldd	r17, Y+3	; 0x03
    1290:	aa 81       	ldd	r26, Y+2	; 0x02
    1292:	b9 81       	ldd	r27, Y+1	; 0x01
    1294:	ce 0f       	add	r28, r30
    1296:	d1 1d       	adc	r29, r1
    1298:	0f b6       	in	r0, 0x3f	; 63
    129a:	f8 94       	cli
    129c:	de bf       	out	0x3e, r29	; 62
    129e:	0f be       	out	0x3f, r0	; 63
    12a0:	cd bf       	out	0x3d, r28	; 61
    12a2:	ed 01       	movw	r28, r26
    12a4:	08 95       	ret

000012a6 <_exit>:
    12a6:	f8 94       	cli

000012a8 <__stop_program>:
    12a8:	ff cf       	rjmp	.-2      	; 0x12a8 <__stop_program>
